(lp0
V\uff0c
p1
aV\u3002
p2
aV\u000a
p3
aV\u4e0d
p4
aV\u4eba
p5
aV\u5c71
p6
aV\u98ce
p7
aV\u65e5
p8
aV\u4e91
p9
aV\u65e0
p10
aV\u4f55
p11
aV\u4e00
p12
aV\u6625
p13
aV\u6708
p14
aV\u6c34
p15
aV\u82b1
p16
aV\u6765
p17
aV\u6709
p18
aV\u4e2d
p19
aV\u79cb
p20
aV\u4e0a
p21
aV\u65f6
p22
aV\u5929
p23
aV\u5f52
p24
aV\u5fc3
p25
aV\u76f8
p26
aV\u6b64
p27
aV\u5e74
p28
aV\u751f
p29
aV\u957f
p30
aV\u591c
p31
aV\u81ea
p32
aV\u53bb
p33
aV\u77e5
p34
aV\u7a7a
p35
aV\u884c
p36
aV\u6c5f
p37
aV\u5ba2
p38
aV\u767d
p39
aV\u6e05
p40
aV\u8fdc
p41
aV\u541b
p42
aV\u5bd2
p43
aV\u89c1
p44
aV\u4e3a
p45
aV\u5728
p46
aV\u9ad8
p47
aV\u91cc
p48
aV\u96e8
p49
aV\u4e0b
p50
aV\u8def
p51
aV\u843d
p52
aV\u5904
p53
aV\u5982
p54
aV\u591a
p55
aV\u672a
p56
aV\u660e
p57
aV\u522b
p58
aV\u95e8
p59
aV\u8349
p60
aV\u6811
p61
aV\u8272
p62
aV\u9752
p63
aV\u57ce
p64
aV\u5165
p65
aV\u58f0
p66
aV\u65b0
p67
aV\u51fa
p68
aV\u8fd8
p69
aV\u601d
p70
aV\u5357
p71
aV\u6df1
p72
aV\u6797
p73
aV\u5e94
p74
aV\u5f97
p75
aV\u6d41
p76
aV\u9053
p77
aV\u72ec
p78
aV\u671d
p79
aV\u70df
p80
aV\u5f00
p81
aV\u96ea
p82
aV\u5343
p83
aV\u5bb6
p84
aV\u662f
p85
aV\u4e8b
p86
aV\u5c3d
p87
aV\u95f2
p88
aV\u98de
p89
aV\u5b50
p90
aV\u8c01
p91
aV\u671b
p92
aV\u56de
p93
aV\u4e1c
p94
aV\u5730
p95
aV\u4e0e
p96
aV\u4eca
p97
aV\u9152
p98
aV\u524d
p99
aV\u540c
p100
aV\u95fb
p101
aV\u5149
p102
aV\u5df2
p103
aV\u66f4
p104
aV\u6b32
p105
aV\u77f3
p106
aV\u6101
p107
aV\u7389
p108
aV\u770b
p109
aV\u5411
p110
aV\u9e1f
p111
aV\u897f
p112
aV\u53f6
p113
aV\u4e07
p114
aV\u6e38
p115
aV\u4e09
p116
aV\u91cd
p117
aV\u60c5
p118
aV\u5c06
p119
aV\u91d1
p120
aV\u9633
p121
aV\u9a6c
p122
aV\u6d77
p123
aV\u53e4
p124
aV\u9999
p125
aV\u590d
p126
aV\u65e7
p127
aV\u6ee1
p128
aV\u96be
p129
aV\u8001
p130
aV\u8fc7
p131
aV\u6210
p132
aV\u8863
p133
aV\u665a
p134
aV\u53d1
p135
aV\u66ae
p136
aV\u6545
p137
aV\u4ece
p138
aV\u65b9
p139
aV\u5206
p140
aV\u79bb
p141
aV\u4e66
p142
aV\u53ef
p143
aV\u5b64
p144
aV\u5c18
p145
aV\u7af9
p146
aV\u5916
p147
aV\u677e
p148
aV\u8eab
p149
aV\u8d77
p150
aV\u91ce
p151
aV\u541f
p152
aV\u521d
p153
aV\u72b9
p154
aV\u610f
p155
aV\u51e0
p156
aV\u5230
p157
aV\u5f71
p158
aV\u697c
p159
aV\u5173
p160
aV\u540e
p161
aV\u540d
p162
aV\u4e34
p163
aV\u6c14
p164
aV\u6b4c
p165
aV\u4e61
p166
aV\u9732
p167
aV\u5317
p168
aV\u968f
p169
aV\u82b3
p170
aV\u8bd7
p171
aV\u83ab
p172
aV\u4f3c
p173
aV\u5e7d
p174
aV\u68a6
p175
aV\u9022
p176
aV\u6211
p177
aV\u8fb9
p178
aV\u5750
p179
aV\u5f53
p180
aV\u5e73
p181
aV\u9634
p182
aV\u8fd1
p183
aV\u975e
p184
aV\u67f3
p185
aV\u4ea6
p186
aV\u5fae
p187
aV\u80fd
p188
aV\u534e
p189
aV\u53f0
p190
aV\u971c
p191
aV\u95f4
p192
aV\u9759
p193
aV\u56fd
p194
aV\u8a00
p195
aV\u6c49
p196
aV\u5915
p197
aV\u7559
p198
aV\u671f
p199
aV\u5171
p200
aV\u6cb3
p201
aV\u6cc9
p202
aV\u9065
p203
aV\u4ed9
p204
aV\u56e0
p205
aV\u5c81
p206
aV\u4f5c
p207
aV\u6b8b
p208
aV\u7ec8
p209
aV\u7ea2
p210
aV\u679d
p211
aV\u5934
p212
aV\u8fde
p213
aV\u821f
p214
aV\u95ee
p215
aV\u9ec4
p216
aV\u7167
p217
aV\u6c60
p218
aV\u695a
p219
aV\u6653
p220
aV\u6eaa
p221
aV\u7ecf
p222
aV\u8f7b
p223
aV\u5ead
p224
aV\u7eff
p225
aV\u7136
p226
aV\u5c11
p227
aV\u5bbf
p228
aV\u6ce2
p229
aV\u96c1
p230
aV\u5cf0
p231
aV\u9189
p232
aV\u9f99
p233
aV\u6c99
p234
aV\u52a8
p235
aV\u5bfb
p236
aV\u6587
p237
aV\u534a
p238
aV\u65e9
p239
aV\u4e45
p240
aV\u4f9d
p241
aV\u4e16
p242
aV\u5b89
p243
aV\u6728
p244
aV\u597d
p245
aV\u5c45
p246
aV\u516c
p247
aV\u6b63
p248
aV\u60ca
p249
aV\u5439
p250
aV\u5bf9
p251
aV\u9e64
p252
aV\u65ad
p253
aV\u666f
p254
aV\u4e94
p255
aV\u50e7
p256
aV\u738b
p257
aV\u6240
p258
aV\u901a
p259
aV\u78a7
p260
aV\u5fc6
p261
aV\u9e23
p262
aV\u5927
p263
aV\u5782
p264
aV\u767b
p265
aV\u6d6e
p266
aV\u51c9
p267
aV\u5bfa
p268
aV\u9001
p269
aV\u5bc4
p270
aV\u66f2
p271
aV\u7fe0
p272
aV\u5c0f
p273
aV\u758f
p274
aV\u82e5
p275
aV\u767e
p276
aV\u552f
p277
aV\u4f20
p278
aV\u81f3
p279
aV\u6cea
p280
aV\u6000
p281
aV\u8fdf
p282
aV\u5c82
p283
aV\u5bc2
p284
aV\u542c
p285
aV\u60b2
p286
aV\u5e26
p287
aV\u56ed
p288
aV\u5bab
p289
aV\u6674
p290
aV\u53cc
p291
aV\u5174
p292
aV\u82e6
p293
aV\u4e5d
p294
aV\u5ddd
p295
aV\u548c
p296
aV\u75c5
p297
aV\u7a97
p298
aV\u7269
p299
aV\u53c8
p300
aV\u4e71
p301
aV\u9690
p302
aV\u661f
p303
aV\u582a
p304
aV\u601c
p305
aV\u56db
p306
aV\u6069
p307
aV\u8f66
p308
aV\u6563
p309
aV\u9c7c
p310
aV\u8427
p311
aV\u987b
p312
aV\u6697
p313
aV\u5148
p314
aV\u5341
p315
aV\u4e50
p316
aV\u6e56
p317
aV\u865a
p318
aV\u5f85
p319
aV\u5ea6
p320
aV\u79fb
p321
aV\u9675
p322
aV\u8bed
p323
aV\u7231
p324
aV\u89c9
p325
aV\u5e38
p326
aV\u9601
p327
aV\u8f6c
p328
aV\u60a0
p329
aV\u82cd
p330
aV\u9694
p331
aV\u5f84
p332
aV\u624d
p333
aV\u79e6
p334
aV\u5cb8
p335
aV\u9980
p336
aV\u7434
p337
aV\u8282
p338
aV\u795e
p339
aV\u7530
p340
aV\u5408
p341
aV\u733f
p342
aV\u542b
p343
aV\u5f81
p344
aV\u7a00
p345
aV\u4ead
p346
aV\u706f
p347
aV\u971e
p348
aV\u66fe
p349
aV\u5b98
p350
aV\u5ffd
p351
aV\u4e24
p352
aV\u8005
p353
aV\u6068
p354
aV\u4eb2
p355
aV\u4f7f
p356
aV\u659c
p357
aV\u821e
p358
aV\u706b
p359
aV\u949f
p360
aV\u7a77
p361
aV\u4f1a
p362
aV\u5170
p363
aV\u7d2b
p364
aV\u6842
p365
aV\u5802
p366
aV\u53ea
p367
aV\u4fe1
p368
aV\u8f9e
p369
aV\u9010
p370
aV\u6620
p371
aV\u9996
p372
aV\u585e
p373
aV\u82d4
p374
aV\u7985
p375
aV\u7591
p376
aV\u7edd
p377
aV\u51e4
p378
aV\u6816
p379
aV\u6570
p380
aV\u5c1a
p381
aV\u5374
p382
aV\u8bc6
p383
aV\u7fa4
p384
aV\u676f
p385
aV\u4e58
p386
aV\u5dde
p387
aV\u955c
p388
aV\u4e14
p389
aV\u7ed5
p390
aV\u4f59
p391
aV\u836f
p392
aV\u543e
p393
aV\u6b65
p394
aV\u7ffb
p395
aV\u62c2
p396
aV\u8ff9
p397
aV\u5f80
p398
aV\u5367
p399
aV\u6b22
p400
aV\u6d6a
p401
aV\u60dc
p402
aV\u5e06
p403
aV\u6d1e
p404
aV\u5ca9
p405
aV\u80dc
p406
aV\u4e3b
p407
aV\u5bb9
p408
aV\u771f
p409
aV\u4e39
p410
aV\u613f
p411
aV\u7b11
p412
aV\u8352
p413
aV\u6e58
p414
aV\u5723
p415
aV\u5b9a
p416
aV\u4f24
p417
aV\u867d
p418
aV\u7075
p419
aV\u5fd8
p420
aV\u8c22
p421
aV\u4f4f
p422
aV\u97f3
p423
aV\u6447
p424
aV\u4e8c
p425
aV\u5f02
p426
aV\u5251
p427
aV\u8d2b
p428
aV\u8fce
p429
aV\u8c37
p430
aV\u7ed3
p431
aV\u624b
p432
aV\u557c
p433
aV\u59cb
p434
aV\u5e08
p435
aV\u5f92
p436
aV\u4ee4
p437
aV\u8584
p438
aV\u5e1d
p439
aV\u504f
p440
aV\u559c
p441
aV\u9619
p442
aV\u6d1b
p443
aV\u8870
p444
aV\u51b7
p445
aV\u8239
p446
aV\u98d8
p447
aV\u8db3
p448
aV\u4f11
p449
aV\u5973
p450
aV\u71d5
p451
aV\u6e10
p452
aV\u63a9
p453
aV\u7686
p454
aV\u7f57
p455
aV\u9891
p456
aV\u6613
p457
aV\u52b3
p458
aV\u90bb
p459
aV\u9b13
p460
aV\u7d20
p461
aV\u63a5
p462
aV\u6614
p463
aV\u6696
p464
aV\u4ee5
p465
aV\u5434
p466
aV\u6d32
p467
aV\u7720
p468
aV\u5ff5
p469
aV\u989c
p470
aV\u8f69
p471
aV\u4f4e
p472
aV\u592a
p473
aV\u529f
p474
aV\u5377
p475
aV\u79ef
p476
aV\u7ec6
p477
aV\u6761
p478
aV\u4ecd
p479
aV\u501a
p480
aV\u5c14
p481
aV\u5b66
p482
aV\u5f69
p483
aV\u4ea4
p484
aV\u5373
p485
aV\u7247
p486
aV\u6781
p487
aV\u8363
p488
aV\u9a91
p489
aV\u6843
p490
aV\u7acb
p491
aV\u6885
p492
aV\u6ca7
p493
aV\u8d24
p494
aV\u6f6e
p495
aV\u8749
p496
aV\u53ca
p497
aV\u5b81
p498
aV\u6865
p499
aV\u4e1d
p500
aV\u519b
p501
aV\u6bbf
p502
aV\u6751
p503
aV\u753b
p504
aV\u5cad
p505
aV\u7fbd
p506
aV\u4fb5
p507
aV\u6d66
p508
aV\u5f26
p509
aV\u8d4f
p510
aV\u6682
p511
aV\u6768
p512
aV\u90e1
p513
aV\u6a2a
p514
aV\u58eb
p515
aV\u89e3
p516
aV\u8ff7
p517
aV\u4e95
p518
aV\u4f34
p519
aV\u7f62
p520
aV\u5cb3
p521
aV\u5fe7
p522
aV\u6cdb
p523
aV\u672c
p524
aV\u590f
p525
aV\u5316
p526
aV\u76f4
p527
aV\u5b9c
p528
aV\u4ed6
p529
aV\u5f15
p530
aV\u996e
p531
aV\u9e3f
p532
aV\u6025
p533
aV\u90ce
p534
aV\u73e0
p535
aV\u8bf4
p536
aV\u60f3
p537
aV\u547d
p538
aV\u7f18
p539
aV\u773c
p540
aV\u9057
p541
aV\u6795
p542
aV\u90a3
p543
aV\u9526
p544
aV\u65c5
p545
aV\u6c42
p546
aV\u658b
p547
aV\u606f
p548
aV\u51b0
p549
aV\u8d8a
p550
aV\u8d35
p551
aV\u6e7f
p552
aV\u4f73
p553
aV\u6237
p554
aV\u5bb5
p555
aV\u81e3
p556
aV\u60ac
p557
aV\u904d
p558
aV\u6731
p559
aV\u91c7
p560
aV\u4fd7
p561
aV\u6005
p562
aV\u83b2
p563
aV\u6298
p564
aV\u8bba
p565
aV\u80e1
p566
aV\u62a5
p567
aV\u53d8
p568
aV\u83ba
p569
aV\u4fbf
p570
aV\u51dd
p571
aV\u6301
p572
aV\u7528
p573
aV\u7e41
p574
aV\u5175
p575
aV\u9636
p576
aV\u9493
p577
aV\u6881
p578
aV\u4eac
p579
aV\u5e9c
p580
aV\u58c1
p581
aV\u540f
p582
aV\u529b
p583
aV\u611f
p584
aV\u6e21
p585
aV\u5e78
p586
aV\u6c88
p587
aV\u53f9
p588
aV\u6daf
p589
aV\u5fb7
p590
aV\u5fa1
p591
aV\u95ed
p592
aV\u51c4
p593
aV\u6d45
p594
aV\u6839
p595
aV\u8457
p596
aV\u5be5
p597
aV\u5ba4
p598
aV\u8377
p599
aV\u5e72
p600
aV\u6b8a
p601
aV\u83ca
p602
aV\u7a0b
p603
aV\u6668
p604
aV\u7f8e
p605
aV\u5b88
p606
aV\u9e21
p607
aV\u68f9
p608
aV\u7eb7
p609
aV\u6597
p610
aV\u7531
p611
aV\u60df
p612
aV\u98df
p613
aV\u592b
p614
aV\u89c2
p615
aV\u4efb
p616
aV\u76ee
p617
aV\u96fe
p618
aV\u8bb8
p619
aV\u90fd
p620
aV\u5e8a
p621
aV\u6e14
p622
aV\u5b57
p623
aV\u54cd
p624
aV\u9b42
p625
aV\u66d9
p626
aV\u7384
p627
aV\u503e
p628
aV\u9986
p629
aV\u6536
p630
aV\u826f
p631
aV\u50ac
p632
aV\u6218
p633
aV\u4e1b
p634
aV\u643a
p635
aV\u6b7b
p636
aV\u8fe5
p637
aV\u5b9d
p638
aV\u793c
p639
aV\u84ec
p640
aV\u623f
p641
aV\u508d
p642
aV\u627f
p643
aV\u9f50
p644
aV\u51c0
p645
aV\u5931
p646
aV\u5e2d
p647
aV\u85cf
p648
aV\u79bd
p649
aV\u6d25
p650
aV\u4f46
p651
aV\u6cbe
p652
aV\u8f7d
p653
aV\u539f
p654
aV\u4e8e
p655
aV\u517c
p656
aV\u7687
p657
aV\u4e4b
p658
aV\u70db
p659
aV\u8bf8
p660
aV\u5168
p661
aV\u4f17
p662
aV\u5179
p663
aV\u5c0a
p664
aV\u25a1
p665
aV\u5371
p666
aV\u4e89
p667
aV\u9762
p668
aV\u82d1
p669
aV\u6c89
p670
aV\u8bbf
p671
aV\u987e
p672
aV\u6f6d
p673
aV\u6c38
p674
aV\u6500
p675
aV\u660f
p676
aV\u6249
p677
aV\u8d4b
p678
aV\u673a
p679
aV\u8ba1
p680
aV\u51a5
p681
aV\u9500
p682
aV\u6027
p683
aV\u53e3
p684
aV\u8c03
p685
aV\u55a7
p686
aV\u60ed
p687
aV\u9047
p688
aV\u6da7
p689
aV\u59be
p690
aV\u5e18
p691
aV\u7ae0
p692
aV\u8f89
p693
aV\u62b1
p694
aV\u7981
p695
aV\u6ef4
p696
aV\u6e1a
p697
aV\u7ba1
p698
aV\u9f13
p699
aV\u76d8
p700
aV\u51b5
p701
aV\u4faf
p702
aV\u6cfd
p703
aV\u7aef
p704
aV\u4e3e
p705
aV\u513f
p706
aV\u6b66
p707
aV\u6f0f
p708
aV\u6028
p709
aV\u6851
p710
aV\u53d6
p711
aV\u5706
p712
aV\u7adf
p713
aV\u65cc
p714
aV\u674e
p715
aV\u5fc5
p716
aV\u5bb4
p717
aV\u5858
p718
aV\u5c01
p719
aV\u5df4
p720
aV\u804a
p721
aV\u820d
p722
aV\u6ce5
p723
aV\u6bcf
p724
aV\u53e5
p725
aV\u8fe2
p726
aV\u8f6e
p727
aV\u4e1a
p728
aV\u9898
p729
aV\u6302
p730
aV\u5883
p731
aV\u7406
p732
aV\u52bf
p733
aV\u5e76
p734
aV\u8c61
p735
aV\u7b75
p736
aV\u626b
p737
aV\u89d2
p738
aV\u8bdd
p739
aV\u5185
p740
aV\u604b
p741
aV\u6bd4
p742
aV\u5bde
p743
aV\u90ca
p744
aV\u4fee
p745
aV\u895f
p746
aV\u8346
p747
aV\u8425
p748
aV\u7834
p749
aV\u6cd5
p750
aV\u4fa3
p751
aV\u79f0
p752
aV\u60c6
p753
aV\u6ca1
p754
aV\u964c
p755
aV\u9701
p756
aV\u4ee3
p757
aV\u6628
p758
aV\u8d60
p759
aV\u9014
p760
aV\u7fa1
p761
aV\u5386
p762
aV\u5019
p763
aV\u9704
p764
aV\u9645
p765
aV\u76c8
p766
aV\u9a7f
p767
aV\u8700
p768
aV\u51a0
p769
aV\u51cc
p770
aV\u70e7
p771
aV\u8d1f
p772
aV\u4ff1
p773
aV\u80cc
p774
aV\u76db
p775
aV\u9614
p776
aV\u5c9b
p777
aV\u55df
p778
aV\u9aa8
p779
aV\u79cd
p780
aV\u5f62
p781
aV\u5bc6
p782
aV\u516d
p783
aV\u620e
p784
aV\u5176
p785
aV\u6d88
p786
aV\u832b
p787
aV\u52e4
p788
aV\u5468
p789
aV\u8015
p790
aV\u5217
p791
aV\u7c89
p792
aV\u907f
p793
aV\u78ec
p794
aV\u620d
p795
aV\u6700
p796
aV\u6d12
p797
aV\u501f
p798
aV\u7fc1
p799
aV\u6559
p800
aV\u9662
p801
aV\u6773
p802
aV\u5c4b
p803
aV\u51ed
p804
aV\u5f04
p805
aV\u8273
p806
aV\u841d
p807
aV\u706d
p808
aV\u571f
p809
aV\u7eee
p810
aV\u548f
p811
aV\u5e7f
p812
aV\u663c
p813
aV\u53bf
p814
aV\u6050
p815
aV\u6307
p816
aV\u62db
p817
aV\u6295
p818
aV\u62ab
p819
aV\u6dee
p820
aV\u6b47
p821
aV\u76d6
p822
aV\u9042
p823
aV\u90ed
p824
aV\u725b
p825
aV\u626c
p826
aV\u538c
p827
aV\u65d7
p828
aV\u56fe
p829
aV\u5143
p830
aV\u5b59
p831
aV\u5de2
p832
aV\u6247
p833
aV\u8854
p834
aV\u6f84
p835
aV\u6e90
p836
aV\u7709
p837
aV\u6691
p838
aV\u9a7b
p839
aV\u5c3a
p840
aV\u5ce1
p841
aV\u5b85
p842
aV\u5fd7
p843
aV\u518d
p844
aV\u4e3d
p845
aV\u53e0
p846
aV\u82f1
p847
aV\u6d9b
p848
aV\u54c0
p849
aV\u53cb
p850
aV\u8986
p851
aV\u745e
p852
aV\u80a0
p853
aV\u4e4c
p854
aV\u5e10
p855
aV\u5076
p856
aV\u7ae5
p857
aV\u6562
p858
aV\u5e90
p859
aV\u53c2
p860
aV\u7701
p861
aV\u6a35
p862
aV\u97f5
p863
aV\u9647
p864
aV\u7089
p865
aV\u7cbe
p866
aV\u62e5
p867
aV\u7a7f
p868
aV\u6a90
p869
aV\u8305
p870
aV\u6656
p871
aV\u9091
p872
aV\u7476
p873
aV\u75be
p874
aV\u516b
p875
aV\u864e
p876
aV\u972d
p877
aV\u9e3e
p878
aV\u5e02
p879
aV\u866b
p880
aV\u58f6
p881
aV\u96c4
p882
aV\u6dfb
p883
aV\u7b3c
p884
aV\u62dc
p885
aV\u8336
p886
aV\u8fbe
p887
aV\u67af
p888
aV\u5e55
p889
aV\u53f2
p890
aV\u7b2c
p891
aV\u505c
p892
aV\u5986
p893
aV\u77ed
p894
aV\u914c
p895
aV\u96d5
p896
aV\u4e18
p897
aV\u4e03
p898
aV\u6cca
p899
aV\u8776
p900
aV\u70b9
p901
aV\u88ab
p902
aV\u5f20
p903
aV\u58d1
p904
aV\u6756
p905
aV\u5acc
p906
aV\u5112
p907
aV\u679c
p908
aV\u5404
p909
aV\u6bb7
p910
aV\u5f39
p911
aV\u6bdb
p912
aV\u80af
p913
aV\u9676
p914
aV\u8fb0
p915
aV\u8896
p916
aV\u653e
p917
aV\u9e25
p918
aV\u7518
p919
aV\u5c31
p920
aV\u8d64
p921
aV\u5e95
p922
aV\u96f7
p923
aV\u732e
p924
aV\u8fd4
p925
aV\u6850
p926
aV\u6539
p927
aV\u7bf1
p928
aV\u6127
p929
aV\u96c6
p930
aV\u94f6
p931
aV\u9876
p932
aV\u62df
p933
aV\u72c2
p934
aV\u8361
p935
aV\u964d
p936
aV\u5f8b
p937
aV\u594f
p938
aV\u51ac
p939
aV\u5c42
p940
aV\u8fdd
p941
aV\u5bff
p942
aV\u628a
p943
aV\u5e9f
p944
aV\u8bd5
p945
aV\u670d
p946
aV\u6f2b
p947
aV\u6f5c
p948
aV\u829c
p949
aV\u9a71
p950
aV\u79c0
p951
aV\u5a01
p952
aV\u5949
p953
aV\u5c90
p954
aV\u7a0d
p955
aV\u65e2
p956
aV\u5229
p957
aV\u5dee
p958
aV\u5bbe
p959
aV\u5c5e
p960
aV\u4e4d
p961
aV\u5531
p962
aV\u6ce3
p963
aV\u7b56
p964
aV\u719f
p965
aV\u6742
p966
aV\u5f3a
p967
aV\u8bcd
p968
aV\u8da3
p969
aV\u7aa5
p970
aV\u5ef6
p971
aV\u67cf
p972
aV\u9648
p973
aV\u94b1
p974
aV\u5dfe
p975
aV\u7c2a
p976
aV\u5207
p977
aV\u5c1d
p978
aV\u6fb9
p979
aV\u6d17
p980
aV\u5e03
p981
aV\u5609
p982
aV\u9e7f
p983
aV\u6f20
p984
aV\u7ffc
p985
aV\u9a7e
p986
aV\u8981
p987
aV\u5f1f
p988
aV\u780c
p989
aV\u6c40
p990
aV\u8fc1
p991
aV\u6d53
p992
aV\u9650
p993
aV\u96c5
p994
aV\u754f
p995
aV\u5947
p996
aV\u7eb5
p997
aV\u75d5
p998
aV\u84b2
p999
aV\u61d2
p1000
aV\u7f81
p1001
aV\u5df7
p1002
aV\u7f51
p1003
aV\u503c
p1004
aV\u8426
p1005
aV\u9611
p1006
aV\u6da6
p1007
aV\u51b2
p1008
aV\u966a
p1009
aV\u5ba6
p1010
aV\u4f69
p1011
aV\u7b14
p1012
aV\u675c
p1013
aV\u5b87
p1014
aV\u7bc7
p1015
aV\u8170
p1016
aV\u5347
p1017
aV\u5899
p1018
aV\u7554
p1019
aV\u743c
p1020
aV\u963b
p1021
aV\u8868
p1022
aV\u9c9c
p1023
aV\u9e6d
p1024
aV\u575b
p1025
aV\u864f
p1026
aV\u653f
p1027
aV\u5c27
p1028
aV\u58ee
p1029
aV\u5370
p1030
aV\u4e25
p1031
aV\u8bb5
p1032
aV\u4ef0
p1033
aV\u711a
p1034
aV\u53d7
p1035
aV\u7f9e
p1036
aV\u7cfb
p1037
aV\u94dc
p1038
aV\u6f47
p1039
aV\u517b
p1040
aV\u9cde
p1041
aV\u9e33
p1042
aV\u8ffd
p1043
aV\u6ede
p1044
aV\u6d69
p1045
aV\u8d8b
p1046
aV\u5b58
p1047
aV\u8e2a
p1048
aV\u7ee3
p1049
aV\u65cb
p1050
aV\u6c1b
p1051
aV\u6258
p1052
aV\u6714
p1053
aV\u860b
p1054
aV\u5e99
p1055
aV\u5937
p1056
aV\u537f
p1057
aV\u57c3
p1058
aV\u5199
p1059
aV\u4f5b
p1060
aV\u96f6
p1061
aV\u5026
p1062
aV\u5ba0
p1063
aV\u669d
p1064
aV\u54bd
p1065
aV\u5b97
p1066
aV\u54c9
p1067
aV\u8d70
p1068
aV\u5e86
p1069
aV\u4fc3
p1070
aV\u9669
p1071
aV\u8bda
p1072
aV\u674f
p1073
aV\u5200
p1074
aV\u8679
p1075
aV\u5473
p1076
aV\u6e3a
p1077
aV\u8861
p1078
aV\u768e
p1079
aV\u708e
p1080
aV\u5ea7
p1081
aV\u5824
p1082
aV\u5948
p1083
aV\u8fa8
p1084
aV\u69db
p1085
aV\u9038
p1086
aV\u9ed1
p1087
aV\u5f7b
p1088
aV\u88c1
p1089
aV\u6e2d
p1090
aV\u814a
p1091
aV\u7b1b
p1092
aV\u96c0
p1093
aV\u7275
p1094
aV\u8d31
p1095
aV\u70e6
p1096
aV\u8d4a
p1097
aV\u68a7
p1098
aV\u89de
p1099
aV\u9063
p1100
aV\u805a
p1101
aV\u9192
p1102
aV\u4e43
p1103
aV\u5bf8
p1104
aV\u9002
p1105
aV\u5546
p1106
aV\u8bcf
p1107
aV\u8499
p1108
aV\u8f87
p1109
aV\u67f4
p1110
aV\u6208
p1111
aV\u85d3
p1112
aV\u4f8d
p1113
aV\u4e49
p1114
aV\u4e30
p1115
aV\u67ab
p1116
aV\u5c65
p1117
aV\u7761
p1118
aV\u66f9
p1119
aV\u916c
p1120
aV\u65f7
p1121
aV\u7d2f
p1122
aV\u51cb
p1123
aV\u8f9b
p1124
aV\u81f4
p1125
aV\u89e6
p1126
aV\u6276
p1127
aV\u6b62
p1128
aV\u5854
p1129
aV\u6a3d
p1130
aV\u9a70
p1131
aV\u7c1f
p1132
aV\u7fe9
p1133
aV\u793e
p1134
aV\u745f
p1135
aV\u5d16
p1136
aV\u5f03
p1137
aV\u88f4
p1138
aV\u94a9
p1139
aV\u54ed
p1140
aV\u65af
p1141
aV\u8212
p1142
aV\u5144
p1143
aV\u8885
p1144
aV\u90c1
p1145
aV\u63a8
p1146
aV\u8d1e
p1147
aV\u5012
p1148
aV\u8bb0
p1149
aV\u8350
p1150
aV\u59ff
p1151
aV\u5999
p1152
aV\u5410
p1153
aV\u8424
p1154
aV\u5cab
p1155
aV\u51cf
p1156
aV\u65e6
p1157
aV\u620f
p1158
aV\u8d44
p1159
aV\u5b9e
p1160
aV\u5f79
p1161
aV\u85e4
p1162
aV\u5deb
p1163
aV\u95fa
p1164
aV\u652f
p1165
aV\u5c55
p1166
aV\u655b
p1167
aV\u67f1
p1168
aV\u5a07
p1169
aV\u6ce0
p1170
aV\u5578
p1171
aV\u9521
p1172
aV\u7d22
p1173
aV\u6362
p1174
aV\u72ac
p1175
aV\u9646
p1176
aV\u9f0e
p1177
aV\u5c4f
p1178
aV\u69d0
p1179
aV\u6687
p1180
aV\u5fcd
p1181
aV\u6ee9
p1182
aV\u8bfb
p1183
aV\u67d3
p1184
aV\u8651
p1185
aV\u9664
p1186
aV\u5636
p1187
aV\u4eea
p1188
aV\u7011
p1189
aV\u8bef
p1190
aV\u9e4a
p1191
aV\u5df1
p1192
aV\u7965
p1193
aV\u8083
p1194
aV\u88f3
p1195
aV\u59d3
p1196
aV\u6740
p1197
aV\u5987
p1198
aV\u8033
p1199
aV\u754c
p1200
aV\u575f
p1201
aV\u4f0a
p1202
aV\u8559
p1203
aV\u4e70
p1204
aV\u9976
p1205
aV\u829d
p1206
aV\u514d
p1207
aV\u5d69
p1208
aV\u51bb
p1209
aV\u6d4e
p1210
aV\u9000
p1211
aV\u5c48
p1212
aV\u5bbd
p1213
aV\u7f8a
p1214
aV\u9c81
p1215
aV\u5efa
p1216
aV\u8c13
p1217
aV\u4fa7
p1218
aV\u8c12
p1219
aV\u6b21
p1220
aV\u6c9f
p1221
aV\u5360
p1222
aV\u59d4
p1223
aV\u854a
p1224
aV\u6d01
p1225
aV\u5b9b
p1226
aV\u7634
p1227
aV\u68cb
p1228
aV\u4f0f
p1229
aV\u7eed
p1230
aV\u59a8
p1231
aV\u74f6
p1232
aV\u7aff
p1233
aV\u8299
p1234
aV\u7ea4
p1235
aV\u7960
p1236
aV\u6a58
p1237
aV\u542f
p1238
aV\u5f31
p1239
aV\u672b
p1240
aV\u4e86
p1241
aV\u5c61
p1242
aV\u4f2b
p1243
aV\u7070
p1244
aV\u6f7a
p1245
aV\u60e0
p1246
aV\u662d
p1247
aV\u7956
p1248
aV\u529d
p1249
aV\u4ec1
p1250
aV\u7827
p1251
aV\u9080
p1252
aV\u56e2
p1253
aV\u5815
p1254
aV\u6001
p1255
aV\u5bb8
p1256
aV\u751a
p1257
aV\u632f
p1258
aV\u970f
p1259
aV\u5f25
p1260
aV\u9ed8
p1261
aV\u4e5f
p1262
aV\u5bdd
p1263
aV\u5c91
p1264
aV\u5323
p1265
aV\u8d56
p1266
aV\u6175
p1267
aV\u9965
p1268
aV\u8c0b
p1269
aV\u7ef6
p1270
aV\u602a
p1271
aV\u56fa
p1272
aV\u7f28
p1273
aV\u6df9
p1274
aV\u97ad
p1275
aV\u8bf7
p1276
aV\u4f4d
p1277
aV\u5ce8
p1278
aV\u573a
p1279
aV\u7b26
p1280
aV\u84c9
p1281
aV\u65c6
p1282
aV\u88d8
p1283
aV\u6ee8
p1284
aV\u5d82
p1285
aV\u76ca
p1286
aV\u9020
p1287
aV\u672f
p1288
aV\u5760
p1289
aV\u5f13
p1290
aV\u52ff
p1291
aV\u85fb
p1292
aV\u8d28
p1293
aV\u638c
p1294
aV\u5584
p1295
aV\u683d
p1296
aV\u7ea6
p1297
aV\u7626
p1298
aV\u7bad
p1299
aV\u8e0f
p1300
aV\u7f6e
p1301
aV\u7bab
p1302
aV\u6de1
p1303
aV\u8c08
p1304
aV\u73cd
p1305
aV\u730e
p1306
aV\u6170
p1307
aV\u52a9
p1308
aV\u789b
p1309
aV\u6241
p1310
aV\u58a8
p1311
aV\u5e37
p1312
aV\u77bb
p1313
aV\u9685
p1314
aV\u7ef5
p1315
aV\u7ec7
p1316
aV\u6b39
p1317
aV\u4e54
p1318
aV\u86ee
p1319
aV\u5f7c
p1320
aV\u5eb7
p1321
aV\u89c5
p1322
aV\u6325
p1323
aV\u4e60
p1324
aV\u996d
p1325
aV\u7984
p1326
aV\u8bb2
p1327
aV\u8d3e
p1328
aV\u4e08
p1329
aV\u9e26
p1330
aV\u9012
p1331
aV\u7eb1
p1332
aV\u7b33
p1333
aV\u62a4
p1334
aV\u95f1
p1335
aV\u705e
p1336
aV\u5eca
p1337
aV\u7b80
p1338
aV\u90e2
p1339
aV\u7ee7
p1340
aV\u8206
p1341
aV\u51ff
p1342
aV\u7b19
p1343
aV\u5c04
p1344
aV\u5047
p1345
aV\u9b44
p1346
aV\u6986
p1347
aV\u9f7f
p1348
aV\u4e88
p1349
aV\u5c9a
p1350
aV\u8c8c
p1351
aV\u768b
p1352
aV\u7891
p1353
aV\u8109
p1354
aV\u4ed7
p1355
aV\u5510
p1356
aV\u86fe
p1357
aV\u547c
p1358
aV\u9501
p1359
aV\u7a74
p1360
aV\u6fef
p1361
aV\u7532
p1362
aV\u6458
p1363
aV\u6591
p1364
aV\u5de1
p1365
aV\u840d
p1366
aV\u56f4
p1367
aV\u6ecb
p1368
aV\u5bd0
p1369
aV\u9163
p1370
aV\u8840
p1371
aV\u83f2
p1372
aV\u9b3c
p1373
aV\u5792
p1374
aV\u73a9
p1375
aV\u88c5
p1376
aV\u8fbd
p1377
aV\u5043
p1378
aV\u7ff0
p1379
aV\u8302
p1380
aV\u8f9f
p1381
aV\u98d2
p1382
aV\u6beb
p1383
aV\u50fb
p1384
aV\u629b
p1385
aV\u7236
p1386
aV\u6e29
p1387
aV\u5bb0
p1388
aV\u664b
p1389
aV\u82a6
p1390
aV\u6b3a
p1391
aV\u8d50
p1392
aV\u9910
p1393
aV\u540a
p1394
aV\u7c7b
p1395
aV\u696b
p1396
aV\u519c
p1397
aV\u7fb8
p1398
aV\u6fc0
p1399
aV\u7c4d
p1400
aV\u4f50
p1401
aV\u5d07
p1402
aV\u6c0f
p1403
aV\u803f
p1404
aV\u63d0
p1405
aV\u609f
p1406
aV\u654c
p1407
aV\u82cf
p1408
aV\u888d
p1409
aV\u53df
p1410
aV\u4ea1
p1411
aV\u5de6
p1412
aV\u97f6
p1413
aV\u68b5
p1414
aV\u5ae9
p1415
aV\u723d
p1416
aV\u83b1
p1417
aV\u526a
p1418
aV\u9632
p1419
aV\u6f3e
p1420
aV\u62bd
p1421
aV\u79c1
p1422
aV\u7f72
p1423
aV\u675f
p1424
aV\u8e44
p1425
aV\u8e49
p1426
aV\u8dce
p1427
aV\u56ca
p1428
aV\u9a9a
p1429
aV\u6666
p1430
aV\u5236
p1431
aV\u978d
p1432
aV\u6c32
p1433
aV\u57cb
p1434
aV\u8dc3
p1435
aV\u6749
p1436
aV\u788e
p1437
aV\u9b4f
p1438
aV\u5ba3
p1439
aV\u8c3f
p1440
aV\u7ade
p1441
aV\u575a
p1442
aV\u6b23
p1443
aV\u6d89
p1444
aV\u5c7f
p1445
aV\u6216
p1446
aV\u8872
p1447
aV\u6fdb
p1448
aV\u4f2f
p1449
aV\u6da8
p1450
aV\u4f53
p1451
aV\u5ac1
p1452
aV\u6076
p1453
aV\u9e2f
p1454
aV\u60e8
p1455
aV\u7fd4
p1456
aV\u8d74
p1457
aV\u5939
p1458
aV\u903e
p1459
aV\u660c
p1460
aV\u5348
p1461
aV\u8054
p1462
aV\u6e20
p1463
aV\u5a9a
p1464
aV\u89c8
p1465
aV\u53f8
p1466
aV\u8d85
p1467
aV\u664f
p1468
aV\u538b
p1469
aV\u6d78
p1470
aV\u7eea
p1471
aV\u4e5e
p1472
aV\u4ef2
p1473
aV\u602f
p1474
aV\u62d9
p1475
aV\u5f90
p1476
aV\u6c5d
p1477
aV\u6789
p1478
aV\u68ee
p1479
aV\u73ed
p1480
aV\u9f9f
p1481
aV\u840b
p1482
aV\u8d3a
p1483
aV\u9274
p1484
aV\u6234
p1485
aV\u89c4
p1486
aV\u73af
p1487
aV\u906e
p1488
aV\u859c
p1489
aV\u680f
p1490
aV\u6e9f
p1491
aV\u6c72
p1492
aV\u8c2a
p1493
aV\u4e7e
p1494
aV\u5a1f
p1495
aV\u6c57
p1496
aV\u853d
p1497
aV\u6467
p1498
aV\u8862
p1499
aV\u51eb
p1500
aV\u6c7e
p1501
aV\u5448
p1502
aV\u53eb
p1503
aV\u838e
p1504
aV\u6bcd
p1505
aV\u535c
p1506
aV\u68a8
p1507
aV\u603b
p1508
aV\u53f3
p1509
aV\u52a0
p1510
aV\u8882
p1511
aV\u5bcc
p1512
aV\u5355
p1513
aV\u7684
p1514
aV\u6d51
p1515
aV\u670b
p1516
aV\u7d6e
p1517
aV\u82d7
p1518
aV\u7267
p1519
aV\u7693
p1520
aV\u5a25
p1521
aV\u85b0
p1522
aV\u7130
p1523
aV\u6bd5
p1524
aV\u67d4
p1525
aV\u89c6
p1526
aV\u5c3e
p1527
aV\u7a3b
p1528
aV\u7f13
p1529
aV\u821c
p1530
aV\u5e0c
p1531
aV\u8fdb
p1532
aV\u5065
p1533
aV\u6861
p1534
aV\u5880
p1535
aV\u7bc1
p1536
aV\u8c0f
p1537
aV\u6396
p1538
aV\u6cf0
p1539
aV\u9ea6
p1540
aV\u4fef
p1541
aV\u5351
p1542
aV\u9ecd
p1543
aV\u69ce
p1544
aV\u5c09
p1545
aV\u9635
p1546
aV\u853c
p1547
aV\u53f7
p1548
aV\u6807
p1549
aV\u72b6
p1550
aV\u6cbc
p1551
aV\u83f1
p1552
aV\u7b0b
p1553
aV\u6a2f
p1554
aV\u6da9
p1555
aV\u63a2
p1556
aV\u5356
p1557
aV\u70ed
p1558
aV\u996f
p1559
aV\u8ba9
p1560
aV\u8513
p1561
aV\u51f0
p1562
aV\u84bf
p1563
aV\u8000
p1564
aV\u51e1
p1565
aV\u67ef
p1566
aV\u611a
p1567
aV\u9ebb
p1568
aV\u51fb
p1569
aV\u817e
p1570
aV\u598d
p1571
aV\u539a
p1572
aV\u94c1
p1573
aV\u79d1
p1574
aV\u5fd9
p1575
aV\u6367
p1576
aV\u8270
p1577
aV\u54b8
p1578
aV\u5951
p1579
aV\u77e3
p1580
aV\u59bb
p1581
aV\u9aa2
p1582
aV\u70fd
p1583
aV\u7eb6
p1584
aV\u7256
p1585
aV\u900d
p1586
aV\u830e
p1587
aV\u878d
p1588
aV\u6684
p1589
aV\u6d4a
p1590
aV\u5992
p1591
aV\u6e72
p1592
aV\u903c
p1593
aV\u5668
p1594
aV\u5b8b
p1595
aV\u641c
p1596
aV\u53a8
p1597
aV\u5fe0
p1598
aV\u69bb
p1599
aV\u7b54
p1600
aV\u804c
p1601
aV\u4fdd
p1602
aV\u773a
p1603
aV\u8317
p1604
aV\u500d
p1605
aV\u94fa
p1606
aV\u6e9c
p1607
aV\u846d
p1608
aV\u8857
p1609
aV\u6cbf
p1610
aV\u556d
p1611
aV\u75b2
p1612
aV\u7ec3
p1613
aV\u5261
p1614
aV\u68b3
p1615
aV\u621a
p1616
aV\u6f31
p1617
aV\u5339
p1618
aV\u777f
p1619
aV\u5938
p1620
aV\u7ef4
p1621
aV\u9886
p1622
aV\u9730
p1623
aV\u589e
p1624
aV\u80a5
p1625
aV\u7fc5
p1626
aV\u7c41
p1627
aV\u86e9
p1628
aV\u8393
p1629
aV\u57a3
p1630
aV\u8702
p1631
aV\u6084
p1632
aV\u5954
p1633
aV\u8131
p1634
aV\u845b
p1635
aV\u5154
p1636
aV\u7edb
p1637
aV\u9642
p1638
aV\u95fe
p1639
aV\u8695
p1640
aV\u98d9
p1641
aV\u7f00
p1642
aV\u6270
p1643
aV\u5218
p1644
aV\u8c6b
p1645
aV\u8d2a
p1646
aV\u6574
p1647
aV\u8944
p1648
aV\u8f88
p1649
aV\u962e
p1650
aV\u5018
p1651
aV\u66db
p1652
aV\u8c23
p1653
aV\u900f
p1654
aV\u7b51
p1655
aV\u78e8
p1656
aV\u523a
p1657
aV\u5195
p1658
aV\u6cfb
p1659
aV\u5e84
p1660
aV\u803b
p1661
aV\u65bd
p1662
aV\u73ee
p1663
aV\u9f19
p1664
aV\u5a92
p1665
aV\u60ec
p1666
aV\u6052
p1667
aV\u79b9
p1668
aV\u6717
p1669
aV\u5de7
p1670
aV\u6750
p1671
aV\u66f3
p1672
aV\u63e1
p1673
aV\u6388
p1674
aV\u5b5f
p1675
aV\u8fd0
p1676
aV\u96cf
p1677
aV\u523b
p1678
aV\u5e97
p1679
aV\u5703
p1680
aV\u5a31
p1681
aV\u7109
p1682
aV\u6d3d
p1683
aV\u9edb
p1684
aV\u5764
p1685
aV\u65ec
p1686
aV\u969c
p1687
aV\u886b
p1688
aV\u5806
p1689
aV\u4e2a
p1690
aV\u5bc7
p1691
aV\u74a7
p1692
aV\u6392
p1693
aV\u9547
p1694
aV\u4e56
p1695
aV\u4ef7
p1696
aV\u5de8
p1697
aV\u7802
p1698
aV\u52cb
p1699
aV\u4e73
p1700
aV\u865e
p1701
aV\u5ce4
p1702
aV\u68af
p1703
aV\u7ff3
p1704
aV\u7a33
p1705
aV\u682a
p1706
aV\u57df
p1707
aV\u8d25
p1708
aV\u9882
p1709
aV\u68a2
p1710
aV\u5188
p1711
aV\u781a
p1712
aV\u690d
p1713
aV\u9e9f
p1714
aV\u7a3d
p1715
aV\u6db5
p1716
aV\u5077
p1717
aV\u6808
p1718
aV\u5e3d
p1719
aV\u60ef
p1720
aV\u6db2
p1721
aV\u7f3a
p1722
aV\u566a
p1723
aV\u4f9b
p1724
aV\u6148
p1725
aV\u6606
p1726
aV\u800c
p1727
aV\u6d95
p1728
aV\u6d54
p1729
aV\u91cf
p1730
aV\u5fdd
p1731
aV\u67b6
p1732
aV\u531d
p1733
aV\u6267
p1734
aV\u6599
p1735
aV\u6c11
p1736
aV\u7f15
p1737
aV\u968b
p1738
aV\u5993
p1739
aV\u6e5b
p1740
aV\u8681
p1741
aV\u82c7
p1742
aV\u5de5
p1743
aV\u517d
p1744
aV\u6f58
p1745
aV\u5f6d
p1746
aV\u5b63
p1747
aV\u5ebe
p1748
aV\u8c6a
p1749
aV\u9a6d
p1750
aV\u9e70
p1751
aV\u79be
p1752
aV\u673d
p1753
aV\u7a1a
p1754
aV\u6015
p1755
aV\u5362
p1756
aV\u51a2
p1757
aV\u52a1
p1758
aV\u6848
p1759
aV\u5178
p1760
aV\u59ec
p1761
aV\u9887
p1762
aV\u60b4
p1763
aV\u5eb6
p1764
aV\u4ea9
p1765
aV\u52b2
p1766
aV\u96c9
p1767
aV\u8fe4
p1768
aV\u5983
p1769
aV\u6d74
p1770
aV\u79d8
p1771
aV\u8865
p1772
aV\u5c50
p1773
aV\u99a8
p1774
aV\u846c
p1775
aV\u6006
p1776
aV\u70bc
p1777
aV\u62fe
p1778
aV\u621f
p1779
aV\u88d9
p1780
aV\u7b79
p1781
aV\u74e2
p1782
aV\u6ce8
p1783
aV\u87fe
p1784
aV\u536b
p1785
aV\u9716
p1786
aV\u676a
p1787
aV\u965f
p1788
aV\u5048
p1789
aV\u8d21
p1790
aV\u7ba7
p1791
aV\u574f
p1792
aV\u7779
p1793
aV\u6f33
p1794
aV\u629a
p1795
aV\u85c9
p1796
aV\u707c
p1797
aV\u7b60
p1798
aV\u86c7
p1799
aV\u5426
p1800
aV\u7ef3
p1801
aV\u798f
p1802
aV\u7ea1
p1803
aV\u4eff
p1804
aV\u5f8a
p1805
aV\u843c
p1806
aV\u5747
p1807
aV\u592e
p1808
aV\u6c90
p1809
aV\u6ca6
p1810
aV\u9497
p1811
aV\u6263
p1812
aV\u6363
p1813
aV\u74dc
p1814
aV\u9aed
p1815
aV\u6d63
p1816
aV\u987a
p1817
aV\u7538
p1818
aV\u7eaa
p1819
aV\u8d75
p1820
aV\u5b54
p1821
aV\u9761
p1822
aV\u718f
p1823
aV\u852c
p1824
aV\u6ed1
p1825
aV\u8089
p1826
aV\u8587
p1827
aV\u84b8
p1828
aV\u52ab
p1829
aV\u5c98
p1830
aV\u8038
p1831
aV\u4f10
p1832
aV\u5189
p1833
aV\u699c
p1834
aV\u50a5
p1835
aV\u656c
p1836
aV\u69ad
p1837
aV\u51fd
p1838
aV\u788d
p1839
aV\u9a84
p1840
aV\u7f8c
p1841
aV\u74e6
p1842
aV\u8438
p1843
aV\u7b49
p1844
aV\u6d2a
p1845
aV\u8179
p1846
aV\u9975
p1847
aV\u6194
p1848
aV\u4ede
p1849
aV\u7737
p1850
aV\u5ce6
p1851
aV\u55b7
p1852
aV\u7537
p1853
aV\u8549
p1854
aV\u6e85
p1855
aV\u5e4c
p1856
aV\u68d8
p1857
aV\u8910
p1858
aV\u963f
p1859
aV\u7ec4
p1860
aV\u68e0
p1861
aV\u716e
p1862
aV\u6512
p1863
aV\u6c64
p1864
aV\u5192
p1865
aV\u7a3c
p1866
aV\u8930
p1867
aV\u68f1
p1868
aV\u9893
p1869
aV\u5085
p1870
aV\u714e
p1871
aV\u837b
p1872
aV\u6c83
p1873
aV\u5e8f
p1874
aV\u9050
p1875
aV\u8f6f
p1876
aV\u6f02
p1877
aV\u683c
p1878
aV\u5544
p1879
aV\u9a8a
p1880
aV\u6cbd
p1881
aV\u63d2
p1882
aV\u6212
p1883
aV\u65e8
p1884
aV\u901d
p1885
aV\u7f04
p1886
aV\u901f
p1887
aV\u56f0
p1888
aV\u7076
p1889
aV\u6155
p1890
aV\u672d
p1891
aV\u72ce
p1892
aV\u64cd
p1893
aV\u6775
p1894
aV\u4e9a
p1895
aV\u52d2
p1896
aV\u94ed
p1897
aV\u69ff
p1898
aV\u58e4
p1899
aV\u4e13
p1900
aV\u8bbe
p1901
aV\u818f
p1902
aV\u6548
p1903
aV\u533a
p1904
aV\u7fee
p1905
aV\u9009
p1906
aV\u8ba4
p1907
aV\u5ced
p1908
aV\u7f16
p1909
aV\u9036
p1910
aV\u53cd
p1911
aV\u5321
p1912
aV\u8b66
p1913
aV\u6f9c
p1914
aV\u8ff8
p1915
aV\u6e0c
p1916
aV\u86df
p1917
aV\u655e
p1918
aV\u9970
p1919
aV\u8247
p1920
aV\u82b0
p1921
aV\u907d
p1922
aV\u7410
p1923
aV\u635f
p1924
aV\u6572
p1925
aV\u4e01
p1926
aV\u6ea2
p1927
aV\u9605
p1928
aV\u70c2
p1929
aV\u9cb8
p1930
aV\u6fd1
p1931
aV\u8e51
p1932
aV\u7259
p1933
aV\u91aa
p1934
aV\u541e
p1935
aV\u85aa
p1936
aV\u5f98
p1937
aV\u575e
p1938
aV\u4e1e
p1939
aV\u9e44
p1940
aV\u8bf5
p1941
aV\u5b5d
p1942
aV\u70f9
p1943
aV\u5239
p1944
aV\u8f99
p1945
aV\u90e8
p1946
aV\u6d82
p1947
aV\u51b3
p1948
aV\u84dd
p1949
aV\u9971
p1950
aV\u6162
p1951
aV\u5bf0
p1952
aV\u72af
p1953
aV\u793a
p1954
aV\u60f9
p1955
aV\u72d6
p1956
aV\u7535
p1957
aV\u9a96
p1958
aV\u50b2
p1959
aV\u887e
p1960
aV\u6821
p1961
aV\u7707
p1962
aV\u59d1
p1963
aV\u7565
p1964
aV\u50cf
p1965
aV\u51a4
p1966
aV\u4ec6
p1967
aV\u8c19
p1968
aV\u7566
p1969
aV\u8471
p1970
aV\u593a
p1971
aV\u63b7
p1972
aV\u9699
p1973
aV\u8c29
p1974
aV\u9003
p1975
aV\u7f1d
p1976
aV\u6063
p1977
aV\u82b8
p1978
aV\u7fdb
p1979
aV\u680b
p1980
aV\u62d4
p1981
aV\u6979
p1982
aV\u5996
p1983
aV\u8bb6
p1984
aV\u545c
p1985
aV\u8303
p1986
aV\u8d2e
p1987
aV\u5893
p1988
aV\u8c82
p1989
aV\u7b5d
p1990
aV\u5180
p1991
aV\u74ee
p1992
aV\u8c10
p1993
aV\u7c07
p1994
aV\u5e1b
p1995
aV\u92ae
p1996
aV\u6577
p1997
aV\u77dc
p1998
aV\u4ff8
p1999
aV\u7545
p2000
aV\u9e53
p2001
aV\u7aa6
p2002
aV\u5cfb
p2003
aV\u9688
p2004
aV\u8df8
p2005
aV\u9006
p2006
aV\u6bd2
p2007
aV\u84b9
p2008
aV\u65cf
p2009
aV\u7a9f
p2010
aV\u4e27
p2011
aV\u73ca
p2012
aV\u90aa
p2013
aV\u7f6a
p2014
aV\u82ac
p2015
aV\u8df5
p2016
aV\u836b
p2017
aV\u6243
p2018
aV\u90d1
p2019
aV\u7eb8
p2020
aV\u95fd
p2021
aV\u6dfc
p2022
aV\u5ffb
p2023
aV\u6dd1
p2024
aV\u9a77
p2025
aV\u88fe
p2026
aV\u8238
p2027
aV\u70c8
p2028
aV\u65d2
p2029
aV\u56a3
p2030
aV\u704c
p2031
aV\u9ebe
p2032
aV\u90a6
p2033
aV\u77f6
p2034
aV\u988d
p2035
aV\u8eac
p2036
aV\u8f95
p2037
aV\u7c9f
p2038
aV\u52c7
p2039
aV\u811a
p2040
aV\u5533
p2041
aV\u6094
p2042
aV\u5960
p2043
aV\u5faa
p2044
aV\u6784
p2045
aV\u81c2
p2046
aV\u8fc8
p2047
aV\u606d
p2048
aV\u5fbd
p2049
aV\u5baa
p2050
aV\u7279
p2051
aV\u5e0f
p2052
aV\u7a20
p2053
aV\u533b
p2054
aV\u81b3
p2055
aV\u5ed3
p2056
aV\u7fe1
p2057
aV\u53e8
p2058
aV\u9519
p2059
aV\u6021
p2060
aV\u9041
p2061
aV\u8f93
p2062
aV\u79c9
p2063
aV\u6e7e
p2064
aV\u7f06
p2065
aV\u9f9b
p2066
aV\u7b97
p2067
aV\u60a6
p2068
aV\u5c40
p2069
aV\u622a
p2070
aV\u91ca
p2071
aV\u6912
p2072
aV\u6edf
p2073
aV\u8202
p2074
aV\u8292
p2075
aV\u8543
p2076
aV\u9afb
p2077
aV\u63d6
p2078
aV\u8e47
p2079
aV\u7a95
p2080
aV\u5fbc
p2081
aV\u8fb1
p2082
aV\u65ed
p2083
aV\u6817
p2084
aV\u9aa4
p2085
aV\u8c2c
p2086
aV\u98cf
p2087
aV\u53ec
p2088
aV\u70ec
p2089
aV\u5742
p2090
aV\u80c6
p2091
aV\u7a88
p2092
aV\u7262
p2093
aV\u906d
p2094
aV\u5219
p2095
aV\u6e34
p2096
aV\u701b
p2097
aV\u4e4f
p2098
aV\u6253
p2099
aV\u960a
p2100
aV\u98d6
p2101
aV\u677f
p2102
aV\u6ca5
p2103
aV\u7574
p2104
aV\u80a9
p2105
aV\u7337
p2106
aV\u5d14
p2107
aV\u5177
p2108
aV\u5420
p2109
aV\u5e44
p2110
aV\u500f
p2111
aV\u536e
p2112
aV\u7fe6
p2113
aV\u987f
p2114
aV\u8475
p2115
aV\u9e4f
p2116
aV\u94bf
p2117
aV\u4f18
p2118
aV\u9713
p2119
aV\u9f20
p2120
aV\u7c73
p2121
aV\u7a46
p2122
aV\u78f4
p2123
aV\u82bd
p2124
aV\u7940
p2125
aV\u85d5
p2126
aV\u73b3
p2127
aV\u9504
p2128
aV\u96cd
p2129
aV\u67c4
p2130
aV\u6e4d
p2131
aV\u7eb9
p2132
aV\u5524
p2133
aV\u7586
p2134
aV\u65c1
p2135
aV\u5267
p2136
aV\u667a
p2137
aV\u6dc5
p2138
aV\u88c2
p2139
aV\u9e8b
p2140
aV\u8bae
p2141
aV\u7a0e
p2142
aV\u73c2
p2143
aV\u5907
p2144
aV\u7f25
p2145
aV\u76d7
p2146
aV\u581e
p2147
aV\u8138
p2148
aV\u4fe6
p2149
aV\u85e9
p2150
aV\u9535
p2151
aV\u9707
p2152
aV\u8e4b
p2153
aV\u85dc
p2154
aV\u52c9
p2155
aV\u796d
p2156
aV\u64e2
p2157
aV\u6043
p2158
aV\u91ba
p2159
aV\u6d47
p2160
aV\u8f8d
p2161
aV\u84df
p2162
aV\u9ca4
p2163
aV\u72d0
p2164
aV\u8d2f
p2165
aV\u65f1
p2166
aV\u95f7
p2167
aV\u55bb
p2168
aV\u8c41
p2169
aV\u50da
p2170
aV\u6d93
p2171
aV\u795d
p2172
aV\u5a75
p2173
aV\u4ed3
p2174
aV\u95f0
p2175
aV\u6b3e
p2176
aV\u820c
p2177
aV\u592d
p2178
aV\u544a
p2179
aV\u803d
p2180
aV\u5f18
p2181
aV\u6c61
p2182
aV\u9884
p2183
aV\u5e61
p2184
aV\u6df7
p2185
aV\u8e4a
p2186
aV\u8e70
p2187
aV\u9ece
p2188
aV\u72fc
p2189
aV\u659f
p2190
aV\u7b4b
p2191
aV\u8d81
p2192
aV\u7f2d
p2193
aV\u7eb3
p2194
aV\u5409
p2195
aV\u72ed
p2196
aV\u7503
p2197
aV\u83e1
p2198
aV\u5b70
p2199
aV\u4fe8
p2200
aV\u9e9d
p2201
aV\u589f
p2202
aV\u840f
p2203
aV\u82d2
p2204
aV\u6f78
p2205
aV\u6414
p2206
aV\u75db
p2207
aV\u54c1
p2208
aV\u5e54
p2209
aV\u9738
p2210
aV\u6d46
p2211
aV\u8c05
p2212
aV\u950b
p2213
aV\u964b
p2214
aV\u7c92
p2215
aV\u5352
p2216
aV\u4fc4
p2217
aV\u5c24
p2218
aV\u5be1
p2219
aV\u9877
p2220
aV\u5ef7
p2221
aV\u77eb
p2222
aV\u62b5
p2223
aV\u73ea
p2224
aV\u53d4
p2225
aV\u63f4
p2226
aV\u94a7
p2227
aV\u76d0
p2228
aV\u97e6
p2229
aV\u5140
p2230
aV\u64ce
p2231
aV\u74ef
p2232
aV\u76ae
p2233
aV\u8338
p2234
aV\u4e8f
p2235
aV\u9f84
p2236
aV\u7533
p2237
aV\u9e45
p2238
aV\u5c6f
p2239
aV\u618e
p2240
aV\u5919
p2241
aV\u6551
p2242
aV\u524a
p2243
aV\u8354
p2244
aV\u73d1
p2245
aV\u909b
p2246
aV\u9075
p2247
aV\u62ed
p2248
aV\u970d
p2249
aV\u5c66
p2250
aV\u7b94
p2251
aV\u8d1d
p2252
aV\u9a8c
p2253
aV\u6735
p2254
aV\u6d59
p2255
aV\u4ed8
p2256
aV\u83f0
p2257
aV\u97e9
p2258
aV\u66dc
p2259
aV\u9e62
p2260
aV\u5fcc
p2261
aV\u9aa5
p2262
aV\u5269
p2263
aV\u6d3e
p2264
aV\u6ed4
p2265
aV\u808c
p2266
aV\u98a0
p2267
aV\u56ac
p2268
aV\u8dfb
p2269
aV\u529a
p2270
aV\u9b1f
p2271
aV\u81ba
p2272
aV\u8165
p2273
aV\u9616
p2274
aV\u5974
p2275
aV\u5dc5
p2276
aV\u7b47
p2277
aV\u5e19
p2278
aV\u9eef
p2279
aV\u8c79
p2280
aV\u6c24
p2281
aV\u84d1
p2282
aV\u7f01
p2283
aV\u5786
p2284
aV\u5349
p2285
aV\u965b
p2286
aV\u6d8c
p2287
aV\u67da
p2288
aV\u7c3f
p2289
aV\u6a31
p2290
aV\u79e9
p2291
aV\u5bd3
p2292
aV\u88ad
p2293
aV\u757f
p2294
aV\u9a8f
p2295
aV\u6a84
p2296
aV\u86f0
p2297
aV\u99a5
p2298
aV\u94c3
p2299
aV\u828a
p2300
aV\u7b71
p2301
aV\u8bbc
p2302
aV\u54ab
p2303
aV\u9119
p2304
aV\u752b
p2305
aV\u6d3b
p2306
aV\u50ee
p2307
aV\u8e85
p2308
aV\u66ff
p2309
aV\u7261
p2310
aV\u5a74
p2311
aV\u94b5
p2312
aV\u6350
p2313
aV\u61a9
p2314
aV\u7f20
p2315
aV\u9aef
p2316
aV\u7a84
p2317
aV\u62e8
p2318
aV\u5146
p2319
aV\u822c
p2320
aV\u5d29
p2321
aV\u8d3b
p2322
aV\u7ea8
p2323
aV\u6743
p2324
aV\u8f78
p2325
aV\u9e67
p2326
aV\u5e7b
p2327
aV\u6fc6
p2328
aV\u69b4
p2329
aV\u8f85
p2330
aV\u6387
p2331
aV\u5f64
p2332
aV\u5c39
p2333
aV\u819d
p2334
aV\u78f7
p2335
aV\u4fed
p2336
aV\u6cab
p2337
aV\u9644
p2338
aV\u5ec9
p2339
aV\u614e
p2340
aV\u5d47
p2341
aV\u87e0
p2342
aV\u73b2
p2343
aV\u8821
p2344
aV\u8367
p2345
aV\u6da4
p2346
aV\u572d
p2347
aV\u96bc
p2348
aV\u65a7
p2349
aV\u9890
p2350
aV\u9e2a
p2351
aV\u7a81
p2352
aV\u5f2f
p2353
aV\u822b
p2354
aV\u68ad
p2355
aV\u64c5
p2356
aV\u79fe
p2357
aV\u8bb4
p2358
aV\u7897
p2359
aV\u80e7
p2360
aV\u62d8
p2361
aV\u9e66
p2362
aV\u87c0
p2363
aV\u84c2
p2364
aV\u6bc2
p2365
aV\u5761
p2366
aV\u96e0
p2367
aV\u8086
p2368
aV\u8bc1
p2369
aV\u6a80
p2370
aV\u677c
p2371
aV\u62c6
p2372
aV\u7b3a
p2373
aV\u8431
p2374
aV\u5784
p2375
aV\u8912
p2376
aV\u7280
p2377
aV\u989d
p2378
aV\u7b50
p2379
aV\u8521
p2380
aV\u7a57
p2381
aV\u827a
p2382
aV\u5bb3
p2383
aV\u87cb
p2384
aV\u731c
p2385
aV\u5320
p2386
aV\u6cb9
p2387
aV\u5dd8
p2388
aV\u6b20
p2389
aV\u76cf
p2390
aV\u6734
p2391
aV\u6f8c
p2392
aV\u8839
p2393
aV\u6d4b
p2394
aV\u63be
p2395
aV\u7740
p2396
aV\u718a
p2397
aV\u7ebf
p2398
aV\u88db
p2399
aV\u8e1f
p2400
aV\u51b6
p2401
aV\u86d9
p2402
aV\u8f74
p2403
aV\u6c85
p2404
aV\u889c
p2405
aV\u6d9f
p2406
aV\u7a14
p2407
aV\u6f06
p2408
aV\u7422
p2409
aV\u7126
p2410
aV\u8bad
p2411
aV\u9655
p2412
aV\u7f4d
p2413
aV\u66dd
p2414
aV\u886e
p2415
aV\u5885
p2416
aV\u8d6b
p2417
aV\u9ccc
p2418
aV\u5353
p2419
aV\u5e62
p2420
aV\u9a9d
p2421
aV\u5eb5
p2422
aV\u6867
p2423
aV\u94c5
p2424
aV\u60a3
p2425
aV\u535a
p2426
aV\u6676
p2427
aV\u83bd
p2428
aV\u6ee5
p2429
aV\u6469
p2430
aV\u731b
p2431
aV\u4f26
p2432
aV\u66a7
p2433
aV\u9a6f
p2434
aV\u6652
p2435
aV\u607c
p2436
aV\u7a83
p2437
aV\u806a
p2438
aV\u82ad
p2439
aV\u7403
p2440
aV\u67d8
p2441
aV\u60ee
p2442
aV\u8106
p2443
aV\u66b4
p2444
aV\u5811
p2445
aV\u6b81
p2446
aV\u9a8b
p2447
aV\u6ceb
p2448
aV\u5a7f
p2449
aV\u7978
p2450
aV\u8de8
p2451
aV\u7bb1
p2452
aV\u5300
p2453
aV\u7f08
p2454
aV\u7bc6
p2455
aV\u7edc
p2456
aV\u7441
p2457
aV\u9542
p2458
aV\u53e9
p2459
aV\u7aed
p2460
aV\u80a4
p2461
aV\u5145
p2462
aV\u8010
p2463
aV\u65a9
p2464
aV\u574a
p2465
aV\u7387
p2466
aV\u60d1
p2467
aV\u8568
p2468
aV\u5e42
p2469
aV\u68e3
p2470
aV\u6311
p2471
aV\u65c3
p2472
aV\u76e5
p2473
aV\u6df3
p2474
aV\u65c4
p2475
aV\u987d
p2476
aV\u65ab
p2477
aV\u7efd
p2478
aV\u7166
p2479
aV\u5f66
p2480
aV\u7b93
p2481
aV\u6dc7
p2482
aV\u6bf3
p2483
aV\u6eaf
p2484
aV\u557e
p2485
aV\u8df3
p2486
aV\u7b4c
p2487
aV\u83dc
p2488
aV\u8331
p2489
aV\u51af
p2490
aV\u5415
p2491
aV\u8335
p2492
aV\u4e11
p2493
aV\u6deb
p2494
aV\u7afa
p2495
aV\u62f3
p2496
aV\u83d6
p2497
aV\u9c88
p2498
aV\u8036
p2499
aV\u5a46
p2500
aV\u80f8
p2501
aV\u5f87
p2502
aV\u71c3
p2503
aV\u8881
p2504
aV\u8a93
p2505
aV\u6377
p2506
aV\u5203
p2507
aV\u8d3c
p2508
aV\u8c78
p2509
aV\u7199
p2510
aV\u8d39
p2511
aV\u607b
p2512
aV\u81bb
p2513
aV\u7738
p2514
aV\u6655
p2515
aV\u6251
p2516
aV\u5d6f
p2517
aV\u961c
p2518
aV\u5f82
p2519
aV\u6339
p2520
aV\u728a
p2521
aV\u90b9
p2522
aV\u4fa0
p2523
aV\u6eb6
p2524
aV\u95f9
p2525
aV\u9ed4
p2526
aV\u94f8
p2527
aV\u699b
p2528
aV\u63ac
p2529
aV\u7ee9
p2530
aV\u8703
p2531
aV\u6f88
p2532
aV\u7ba8
p2533
aV\u9f3b
p2534
aV\u7a37
p2535
aV\u68c0
p2536
aV\u532a
p2537
aV\u8f94
p2538
aV\u7fb9
p2539
aV\u6246
p2540
aV\u6627
p2541
aV\u8859
p2542
aV\u7c97
p2543
aV\u5dcd
p2544
aV\u54f2
p2545
aV\u917f
p2546
aV\u8f7a
p2547
aV\u8564
p2548
aV\u9e49
p2549
aV\u8328
p2550
aV\u9e20
p2551
aV\u80ce
p2552
aV\u8f67
p2553
aV\u822a
p2554
aV\u5243
p2555
aV\u6309
p2556
aV\u63fd
p2557
aV\u7c98
p2558
aV\u586b
p2559
aV\u7fd8
p2560
aV\u9672
p2561
aV\u5308
p2562
aV\u91b4
p2563
aV\u9b54
p2564
aV\u5f0a
p2565
aV\u8d5e
p2566
aV\u9178
p2567
aV\u6f09
p2568
aV\u8c0a
p2569
aV\u6a0a
p2570
aV\u680a
p2571
aV\u6e44
p2572
aV\u6897
p2573
aV\u756a
p2574
aV\u665e
p2575
aV\u7455
p2576
aV\u631f
p2577
aV\u5cb7
p2578
aV\u6248
p2579
aV\u6cd7
p2580
aV\u7ee1
p2581
aV\u5df3
p2582
aV\u6f2a
p2583
aV\u6e53
p2584
aV\u67a2
p2585
aV\u7fb2
p2586
aV\u76c2
p2587
aV\u5b09
p2588
aV\u8721
p2589
aV\u9e3d
p2590
aV\u8ba8
p2591
aV\u9a7a
p2592
aV\u64a9
p2593
aV\u5272
p2594
aV\u51db
p2595
aV\u5306
p2596
aV\u6837
p2597
aV\u7cb2
p2598
aV\u72f1
p2599
aV\u59da
p2600
aV\u827e
p2601
aV\u6297
p2602
aV\u57fa
p2603
aV\u8003
p2604
aV\u6bb5
p2605
aV\u90b8
p2606
aV\u9677
p2607
aV\u7814
p2608
aV\u5984
p2609
aV\u503a
p2610
aV\u9621
p2611
aV\u90b5
p2612
aV\u892d
p2613
aV\u809d
p2614
aV\u7f38
p2615
aV\u55d4
p2616
aV\u78a3
p2617
aV\u871c
p2618
aV\u94a6
p2619
aV\u8e40
p2620
aV\u80ba
p2621
aV\u8f96
p2622
aV\u9ab8
p2623
aV\u722a
p2624
aV\u9c8d
p2625
aV\u5ce3
p2626
aV\u6a79
p2627
aV\u521a
p2628
aV\u7cb1
p2629
aV\u6d50
p2630
aV\u7eb2
p2631
aV\u82df
p2632
aV\u7656
p2633
aV\u80e5
p2634
aV\u51ef
p2635
aV\u7ec5
p2636
aV\u6e25
p2637
aV\u96b3
p2638
aV\u954a
p2639
aV\u60e7
p2640
aV\u5e87
p2641
aV\u75f4
p2642
aV\u5bdf
p2643
aV\u9e2d
p2644
aV\u7bb8
p2645
aV\u76c6
p2646
aV\u5cb1
p2647
aV\u62e9
p2648
aV\u9686
p2649
aV\u77b0
p2650
aV\u6f4b
p2651
aV\u5962
p2652
aV\u679a
p2653
aV\u8006
p2654
aV\u55e3
p2655
aV\u4ea7
p2656
aV\u5458
p2657
aV\u668c
p2658
aV\u606c
p2659
aV\u62d6
p2660
aV\u8058
p2661
aV\u96cc
p2662
aV\u90f8
p2663
aV\u7f11
p2664
aV\u9894
p2665
aV\u83b7
p2666
aV\u98d5
p2667
aV\u6070
p2668
aV\u8473
p2669
aV\u6124
p2670
aV\u7bf7
p2671
aV\u8347
p2672
aV\u7948
p2673
aV\u8c2f
p2674
aV\u7fce
p2675
aV\u65bc
p2676
aV\u5d4b
p2677
aV\u8fe9
p2678
aV\u67e5
p2679
aV\u75ae
p2680
aV\u4ed5
p2681
aV\u9ecf
p2682
aV\u70ad
p2683
aV\u745a
p2684
aV\u7405
p2685
aV\u6d94
p2686
aV\u5b34
p2687
aV\u5a11
p2688
aV\u4e92
p2689
aV\u90af
p2690
aV\u83b9
p2691
aV\u8bfe
p2692
aV\u5a03
p2693
aV\u5f70
p2694
aV\u80f6
p2695
aV\u7cae
p2696
aV\u817b
p2697
aV\u83fc
p2698
aV\u7331
p2699
aV\u4fce
p2700
aV\u6291
p2701
aV\u4f38
p2702
aV\u9088
p2703
aV\u9899
p2704
aV\u5a5a
p2705
aV\u7ec2
p2706
aV\u66c8
p2707
aV\u9172
p2708
aV\u8155
p2709
aV\u84fc
p2710
aV\u8101
p2711
aV\u900b
p2712
aV\u5237
p2713
aV\u4fca
p2714
aV\u8102
p2715
aV\u914d
p2716
aV\u960e
p2717
aV\u95a4
p2718
aV\u6168
p2719
aV\u8204
p2720
aV\u4ec7
p2721
aV\u8205
p2722
aV\u9d12
p2723
aV\u5ca7
p2724
aV\u8bc9
p2725
aV\u9ad3
p2726
aV\u4e59
p2727
aV\u5914
p2728
aV\u9e42
p2729
aV\u7947
p2730
aV\u77bf
p2731
aV\u742a
p2732
aV\u8bc0
p2733
aV\u6566
p2734
aV\u8747
p2735
aV\u6012
p2736
aV\u653b
p2737
aV\u655d
p2738
aV\u6cec
p2739
aV\u72e9
p2740
aV\u8feb
p2741
aV\u6c93
p2742
aV\u7a9c
p2743
aV\u7fca
p2744
aV\u83cc
p2745
aV\u6cfe
p2746
aV\u5385
p2747
aV\u848b
p2748
aV\u6893
p2749
aV\u9c9b
p2750
aV\u6cbb
p2751
aV\u6078
p2752
aV\u9617
p2753
aV\u6726
p2754
aV\u9488
p2755
aV\u84a8
p2756
aV\u5e70
p2757
aV\u9881
p2758
aV\u9573
p2759
aV\u915d
p2760
aV\u7ed9
p2761
aV\u4e38
p2762
aV\u5d6c
p2763
aV\u708a
p2764
aV\u5eb8
p2765
aV\u866c
p2766
aV\u90ae
p2767
aV\u6c74
p2768
aV\u8340
p2769
aV\u8e9e
p2770
aV\u94ba
p2771
aV\u5224
p2772
aV\u62c4
p2773
aV\u783e
p2774
aV\u5c51
p2775
aV\u5e16
p2776
aV\u978b
p2777
aV\u8482
p2778
aV\u6e86
p2779
aV\u90ba
p2780
aV\u5d0e
p2781
aV\u4fdf
p2782
aV\u8bdb
p2783
aV\u77a9
p2784
aV\u6434
p2785
aV\u6d04
p2786
aV\u7b20
p2787
aV\u7395
p2788
aV\u7b25
p2789
aV\u50a8
p2790
aV\u76fc
p2791
aV\u79e3
p2792
aV\u99f8
p2793
aV\u7a85
p2794
aV\u7228
p2795
aV\u8c17
p2796
aV\u6308
p2797
aV\u6770
p2798
aV\u9b23
p2799
aV\u7483
p2800
aV\u5fb5
p2801
aV\u6664
p2802
aV\u6c68
p2803
aV\u8dbe
p2804
aV\u8bd1
p2805
aV\u7cdf
p2806
aV\u9603
p2807
aV\u69bc
p2808
aV\u516e
p2809
aV\u5401
p2810
aV\u4ecb
p2811
aV\u9185
p2812
aV\u988a
p2813
aV\u63a7
p2814
aV\u7409
p2815
aV\u749e
p2816
aV\u6ca4
p2817
aV\u7957
p2818
aV\u8e0c
p2819
aV\u67fd
p2820
aV\u55e4
p2821
aV\u81fe
p2822
aV\u5c96
p2823
aV\u6be1
p2824
aV\u7248
p2825
aV\u64bc
p2826
aV\u6fe0
p2827
aV\u7b52
p2828
aV\u71ce
p2829
aV\u6e0a
p2830
aV\u514b
p2831
aV\u948f
p2832
aV\u4f0d
p2833
aV\u8888
p2834
aV\u5ad6
p2835
aV\u9e92
p2836
aV\u78be
p2837
aV\u88df
p2838
aV\u5e3b
p2839
aV\u8a89
p2840
aV\u5820
p2841
aV\u8774
p2842
aV\u788c
p2843
aV\u9eb9
p2844
aV\u9640
p2845
aV\u7768
p2846
aV\u8574
p2847
aV\u4eae
p2848
aV\u95ea
p2849
aV\u5978
p2850
aV\u707e
p2851
aV\u9879
p2852
aV\u86db
p2853
aV\u7115
p2854
aV\u76d1
p2855
aV\u7a79
p2856
aV\u67a5
p2857
aV\u82b7
p2858
aV\u4ebf
p2859
aV\u577c
p2860
aV\u840e
p2861
aV\u7fdf
p2862
aV\u56da
p2863
aV\u9102
p2864
aV\u9e88
p2865
aV\u67a3
p2866
aV\u5305
p2867
aV\u868c
p2868
aV\u6853
p2869
aV\u94e2
p2870
aV\u7682
p2871
aV\u85a4
p2872
aV\u6cb8
p2873
aV\u7f45
p2874
aV\u7980
p2875
aV\u8327
p2876
aV\u6cae
p2877
aV\u6555
p2878
aV\u8c7a
p2879
aV\u85ff
p2880
aV\u863c
p2881
aV\u5bc5
p2882
aV\u836a
p2883
aV\u6eba
p2884
aV\u8bb9
p2885
aV\u7099
p2886
aV\u6114
p2887
aV\u51f6
p2888
aV\u8d33
p2889
aV\u5e93
p2890
aV\u5162
p2891
aV\u7f7e
p2892
aV\u5639
p2893
aV\u89dc
p2894
aV\u748b
p2895
aV\u5d26
p2896
aV\u8556
p2897
aV\u62c5
p2898
aV\u8c46
p2899
aV\u7765
p2900
aV\u6809
p2901
aV\u80c4
p2902
aV\u9994
p2903
aV\u5cd2
p2904
aV\u9191
p2905
aV\u7f65
p2906
aV\u80b1
p2907
aV\u8d36
p2908
aV\u60af
p2909
aV\u868a
p2910
aV\u594b
p2911
aV\u9051
p2912
aV\u7962
p2913
aV\u9dba
p2914
aV\u5ce5
p2915
aV\u62f1
p2916
aV\u6f14
p2917
aV\u7511
p2918
aV\u57d2
p2919
aV\u8983
p2920
aV\u9e22
p2921
aV\u9610
p2922
aV\u5492
p2923
aV\u8c2d
p2924
aV\u5055
p2925
aV\u9a87
p2926
aV\u5dc9
p2927
aV\u80a1
p2928
aV\u6b67
p2929
aV\u8fa9
p2930
aV\u8d6a
p2931
aV\u9017
p2932
aV\u63a0
p2933
aV\u5dae
p2934
aV\u5a18
p2935
aV\u91ae
p2936
aV\u5384
p2937
aV\u956b
p2938
aV\u6f66
p2939
aV\u887f
p2940
aV\u830f
p2941
aV\u5a49
p2942
aV\u82ce
p2943
aV\u6bd7
p2944
aV\u67aa
p2945
aV\u633d
p2946
aV\u6446
p2947
aV\u6ee4
p2948
aV\u67bf
p2949
aV\u8150
p2950
aV\u5d58
p2951
aV\u83bc
p2952
aV\u6868
p2953
aV\u9e43
p2954
aV\u663e
p2955
aV\u88f9
p2956
aV\u6bc1
p2957
aV\u6e0d
p2958
aV\u7235
p2959
aV\u7747
p2960
aV\u5208
p2961
aV\u6fe1
p2962
aV\u96b0
p2963
aV\u5bee
p2964
aV\u8c94
p2965
aV\u73b7
p2966
aV\u5021
p2967
aV\u98a6
p2968
aV\u8c24
p2969
aV\u672e
p2970
aV\u8e48
p2971
aV\u8017
p2972
aV\u6643
p2973
aV\u67b3
p2974
aV\u518c
p2975
aV\u7b95
p2976
aV\u835a
p2977
aV\u8098
p2978
aV\u9a76
p2979
aV\u5ad4
p2980
aV\u6602
p2981
aV\u8d5b
p2982
aV\u636e
p2983
aV\u65c2
p2984
aV\u64ad
p2985
aV\u5c38
p2986
aV\u7fe5
p2987
aV\u54a8
p2988
aV\u9021
p2989
aV\u629f
p2990
aV\u959f
p2991
aV\u8f82
p2992
aV\u6108
p2993
aV\u5029
p2994
aV\u7ee2
p2995
aV\u7e20
p2996
aV\u4ec0
p2997
aV\u5e96
p2998
aV\u5f55
p2999
aV\u8bee
p3000
aV\u9698
p3001
aV\u82de
p3002
aV\u7704
p3003
aV\u94d9
p3004
aV\u7c5e
p3005
aV\u795b
p3006
aV\u6f13
p3007
aV\u604d
p3008
aV\u59dc
p3009
aV\u6177
p3010
aV\u72c4
p3011
aV\u8d22
p3012
aV\u84e0
p3013
aV\u9099
p3014
aV\u5e9e
p3015
aV\u9756
p3016
aV\u4ed1
p3017
aV\u543c
p3018
aV\u9888
p3019
aV\u6862
p3020
aV\u69c1
p3021
aV\u6167
p3022
aV\u71b3
p3023
aV\u6790
p3024
aV\u626a
p3025
aV\u5b99
p3026
aV\u949d
p3027
aV\u8be3
p3028
aV\u61ff
p3029
aV\u5624
p3030
aV\u9aa7
p3031
aV\u5de9
p3032
aV\u63ed
p3033
aV\u9a7c
p3034
aV\u7f55
p3035
aV\u9769
p3036
aV\u94a5
p3037
aV\u6445
p3038
aV\u53a5
p3039
aV\u57a2
p3040
aV\u7953
p3041
aV\u52a3
p3042
aV\u71e5
p3043
aV\u917a
p3044
aV\u66e6
p3045
aV\u541d
p3046
aV\u798a
p3047
aV\u7977
p3048
aV\u5507
p3049
aV\u9a74
p3050
aV\u795a
p3051
aV\u8e2f
p3052
aV\u5c63
p3053
aV\u6d43
p3054
aV\u6cc4
p3055
aV\u7ca5
p3056
aV\u6c05
p3057
aV\u8f98
p3058
aV\u9068
p3059
aV\u5b7a
p3060
aV\u6089
p3061
aV\u502a
p3062
aV\u7334
p3063
aV\u5527
p3064
aV\u5830
p3065
aV\u94c4
p3066
aV\u9668
p3067
aV\u8eaf
p3068
aV\u7030
p3069
aV\u7eca
p3070
aV\u89d0
p3071
aV\u5618
p3072
aV\u65a4
p3073
aV\u714c
p3074
aV\u5d06
p3075
aV\u5256
p3076
aV\u4f36
p3077
aV\u97ec
p3078
aV\u53d9
p3079
aV\u89e5
p3080
aV\u90c4
p3081
aV\u88d4
p3082
aV\u9026
p3083
aV\u9085
p3084
aV\u79df
p3085
aV\u5a09
p3086
aV\u6994
p3087
aV\u8f73
p3088
aV\u8f84
p3089
aV\u5589
p3090
aV\u95c9
p3091
aV\u955e
p3092
aV\u9ee0
p3093
aV\u5e05
p3094
aV\u521b
p3095
aV\u7c27
p3096
aV\u8877
p3097
aV\u61a7
p3098
aV\u5b40
p3099
aV\u867e
p3100
aV\u6753
p3101
aV\u9b45
p3102
aV\u9e57
p3103
aV\u901e
p3104
aV\u6dcb
p3105
aV\u8925
p3106
aV\u7aa0
p3107
aV\u6cf3
p3108
aV\u9765
p3109
aV\u7afd
p3110
aV\u520d
p3111
aV\u94ce
p3112
aV\u574e
p3113
aV\u5a77
p3114
aV\u9a11
p3115
aV\u8d27
p3116
aV\u7a51
p3117
aV\u62ac
p3118
aV\u8018
p3119
aV\u6c9b
p3120
aV\u53a6
p3121
aV\u4f84
p3122
aV\u5364
p3123
aV\u5c3c
p3124
aV\u7e50
p3125
aV\u9d92
p3126
aV\u89cc
p3127
aV\u8bde
p3128
aV\u7e7b
p3129
aV\u997f
p3130
aV\u6dd9
p3131
aV\u70ac
p3132
aV\u835c
p3133
aV\u5366
p3134
aV\u94ff
p3135
aV\u95c7
p3136
aV\u5211
p3137
aV\u7c65
p3138
aV\u5a9b
p3139
aV\u8fc2
p3140
aV\u5612
p3141
aV\u859b
p3142
aV\u8baf
p3143
aV\u7b0f
p3144
aV\u4fac
p3145
aV\u9e4d
p3146
aV\u557b
p3147
aV\u5766
p3148
aV\u7ee0
p3149
aV\u6e6b
p3150
aV\u7bee
p3151
aV\u5d4c
p3152
aV\u8717
p3153
aV\u9d69
p3154
aV\u72d7
p3155
aV\u8966
p3156
aV\u5403
p3157
aV\u9705
p3158
aV\u828d
p3159
aV\u6d2e
p3160
aV\u6222
p3161
aV\u6c69
p3162
aV\u6a50
p3163
aV\u6ed3
p3164
aV\u59dd
p3165
aV\u6fe9
p3166
aV\u7ebb
p3167
aV\u847a
p3168
aV\u5ab8
p3169
aV\u66f7
p3170
aV\u526f
p3171
aV\u5757
p3172
aV\u64b7
p3173
aV\u515a
p3174
aV\u6064
p3175
aV\u7b08
p3176
aV\u9e31
p3177
aV\u7207
p3178
aV\u8111
p3179
aV\u9c99
p3180
aV\u6db8
p3181
aV\u98d7
p3182
aV\u979e
p3183
aV\u823b
p3184
aV\u884d
p3185
aV\u5770
p3186
aV\u6355
p3187
aV\u9e02
p3188
aV\u520a
p3189
aV\u5f0b
p3190
aV\u82d5
p3191
aV\u6c76
p3192
aV\u659b
p3193
aV\u7ec0
p3194
aV\u9606
p3195
aV\u5feb
p3196
aV\u64d2
p3197
aV\u5438
p3198
aV\u64d8
p3199
aV\u9120
p3200
aV\u71a0
p3201
aV\u8f9c
p3202
aV\u8404
p3203
aV\u970e
p3204
aV\u8c1f
p3205
aV\u84c4
p3206
aV\u8bfa
p3207
aV\u895c
p3208
aV\u8e87
p3209
aV\u5e7c
p3210
aV\u6284
p3211
aV\u7436
p3212
aV\u75a0
p3213
aV\u5f27
p3214
aV\u8c31
p3215
aV\u749c
p3216
aV\u55f7
p3217
aV\u7d27
p3218
aV\u96b6
p3219
aV\u904f
p3220
aV\u5a62
p3221
aV\u6d98
p3222
aV\u76aa
p3223
aV\u8306
p3224
aV\u6942
p3225
aV\u675e
p3226
aV\u701a
p3227
aV\u80b2
p3228
aV\u584d
p3229
aV\u8e59
p3230
aV\u6475
p3231
aV\u9093
p3232
aV\u59b9
p3233
aV\u9f0d
p3234
aV\u9550
p3235
aV\u5a7a
p3236
aV\u59ee
p3237
aV\u4e48
p3238
aV\u92cb
p3239
aV\u659d
p3240
aV\u5b8f
p3241
aV\u8dc2
p3242
aV\u87c6
p3243
aV\u66f0
p3244
aV\u6805
p3245
aV\u69c3
p3246
aV\u8446
p3247
aV\u6a59
p3248
aV\u8bbd
p3249
aV\u5e1f
p3250
aV\u7f34
p3251
aV\u5598
p3252
aV\u8d53
p3253
aV\u742f
p3254
aV\u7281
p3255
aV\u9cb5
p3256
aV\u8f68
p3257
aV\u9131
p3258
aV\u6389
p3259
aV\u633a
p3260
aV\u59fb
p3261
aV\u58f3
p3262
aV\u96f9
p3263
aV\u6677
p3264
aV\u683e
p3265
aV\u96f0
p3266
aV\u840c
p3267
aV\u535e
p3268
aV\u62e3
p3269
aV\u5319
p3270
aV\u80e4
p3271
aV\u63a3
p3272
aV\u693f
p3273
aV\u54c2
p3274
aV\u6e24
p3275
aV\u4f5e
p3276
aV\u7893
p3277
aV\u7f05
p3278
aV\u6d8e
p3279
aV\u7433
p3280
aV\u8be2
p3281
aV\u87ad
p3282
aV\u5e1a
p3283
aV\u5e9a
p3284
aV\u5f99
p3285
aV\u9e5c
p3286
aV\u75b5
p3287
aV\u5e45
p3288
aV\u8729
p3289
aV\u9187
p3290
aV\u8469
p3291
aV\u7435
p3292
aV\u7ad6
p3293
aV\u73f0
p3294
aV\u81fc
p3295
aV\u8ba5
p3296
aV\u9e2c
p3297
aV\u5f2d
p3298
aV\u7eac
p3299
aV\u6c82
p3300
aV\u725f
p3301
aV\u9a85
p3302
aV\u5c16
p3303
aV\u6b24
p3304
aV\u5632
p3305
aV\u6d0b
p3306
aV\u5965
p3307
aV\u8d4d
p3308
aV\u5941
p3309
aV\u621b
p3310
aV\u5e14
p3311
aV\u754e
p3312
aV\u78fb
p3313
aV\u7579
p3314
aV\u8605
p3315
aV\u8bdc
p3316
aV\u5bfc
p3317
aV\u70b7
p3318
aV\u6444
p3319
aV\u80eb
p3320
aV\u9a90
p3321
aV\u9739
p3322
aV\u7ffe
p3323
aV\u7ea9
p3324
aV\u7425
p3325
aV\u7caa
p3326
aV\u7ea7
p3327
aV\u816e
p3328
aV\u8f72
p3329
aV\u5b55
p3330
aV\u6cb1
p3331
aV\u8d30
p3332
aV\u6e5f
p3333
aV\u9a15
p3334
aV\u6283
p3335
aV\u4e9b
p3336
aV\u7b7e
p3337
aV\u8680
p3338
aV\u59aa
p3339
aV\u954c
p3340
aV\u9654
p3341
aV\u5395
p3342
aV\u81c6
p3343
aV\u7ea5
p3344
aV\u8232
p3345
aV\u7252
p3346
aV\u5f0f
p3347
aV\u7391
p3348
aV\u973e
p3349
aV\u7bcc
p3350
aV\u6982
p3351
aV\u9aa0
p3352
aV\u8f83
p3353
aV\u8bb3
p3354
aV\u71e7
p3355
aV\u753f
p3356
aV\u67dd
p3357
aV\u6b9a
p3358
aV\u9e37
p3359
aV\u8d41
p3360
aV\u54d1
p3361
aV\u71e0
p3362
aV\u810a
p3363
aV\u8d6d
p3364
aV\u8e81
p3365
aV\u5924
p3366
aV\u573b
p3367
aV\u95fc
p3368
aV\u52fe
p3369
aV\u7762
p3370
aV\u5a1c
p3371
aV\u87ba
p3372
aV\u8463
p3373
aV\u736c
p3374
aV\u7b9c
p3375
aV\u91ed
p3376
aV\u87f9
p3377
aV\u7f09
p3378
aV\u5b71
p3379
aV\u9e73
p3380
aV\u5f01
p3381
aV\u8c15
p3382
aV\u73c0
p3383
aV\u9083
p3384
aV\u7f29
p3385
aV\u5f5d
p3386
aV\u88e8
p3387
aV\u4eab
p3388
aV\u9988
p3389
aV\u77ac
p3390
aV\u8654
p3391
aV\u6cf8
p3392
aV\u9510
p3393
aV\u7119
p3394
aV\u6cfc
p3395
aV\u68d5
p3396
aV\u9ae6
p3397
aV\u8537
p3398
aV\u7f1a
p3399
aV\u9186
p3400
aV\u961f
p3401
aV\u62c8
p3402
aV\u8026
p3403
aV\u9e5a
p3404
aV\u6c79
p3405
aV\u96f3
p3406
aV\u7f19
p3407
aV\u8351
p3408
aV\u6d65
p3409
aV\u66e8
p3410
aV\u58d6
p3411
aV\u9e93
p3412
aV\u53db
p3413
aV\u7f03
p3414
aV\u66be
p3415
aV\u4f3d
p3416
aV\u7470
p3417
aV\u62cd
p3418
aV\u7949
p3419
aV\u65fb
p3420
aV\u8451
p3421
aV\u82d3
p3422
aV\u595a
p3423
aV\u5288
p3424
aV\u4f8b
p3425
aV\u8237
p3426
aV\u77db
p3427
aV\u873b
p3428
aV\u9a79
p3429
aV\u55dc
p3430
aV\u7f2a
p3431
aV\u9a27
p3432
aV\u85ae
p3433
aV\u86c4
p3434
aV\u9161
p3435
aV\u7f94
p3436
aV\u6e1d
p3437
aV\u8bf1
p3438
aV\u834f
p3439
aV\u8599
p3440
aV\u7f69
p3441
aV\u6405
p3442
aV\u67ad
p3443
aV\u75fe
p3444
aV\u695e
p3445
aV\u73e5
p3446
aV\u7bea
p3447
aV\u504e
p3448
aV\u960d
p3449
aV\u530f
p3450
aV\u754b
p3451
aV\u7f23
p3452
aV\u534f
p3453
aV\u5265
p3454
aV\u79d5
p3455
aV\u6874
p3456
aV\u5955
p3457
aV\u5b69
p3458
aV\u72f8
p3459
aV\u8616
p3460
aV\u622e
p3461
aV\u9164
p3462
aV\u5378
p3463
aV\u97a0
p3464
aV\u8bc8
p3465
aV\u54e2
p3466
aV\u8ff0
p3467
aV\u798b
p3468
aV\u831c
p3469
aV\u4ec5
p3470
aV\u9e65
p3471
aV\u6cee
p3472
aV\u8087
p3473
aV\u5ba1
p3474
aV\u78ca
p3475
aV\u7f79
p3476
aV\u5793
p3477
aV\u9052
p3478
aV\u5eea
p3479
aV\u6c9a
p3480
aV\u9977
p3481
aV\u5c60
p3482
aV\u7315
p3483
aV\u7ce0
p3484
aV\u777d
p3485
aV\u9cd6
p3486
aV\u8bc4
p3487
aV\u9e8f
p3488
aV\u7791
p3489
aV\u891a
p3490
aV\u6532
p3491
aV\u59e5
p3492
aV\u9cf7
p3493
aV\u79ba
p3494
aV\u5751
p3495
aV\u783a
p3496
aV\u86f1
p3497
aV\u7194
p3498
aV\u6dec
p3499
aV\u7cb3
p3500
aV\u6cd3
p3501
aV\u4fea
p3502
aV\u6120
p3503
aV\u60f6
p3504
aV\u55c5
p3505
aV\u90d7
p3506
aV\u4ea8
p3507
aV\u6daa
p3508
aV\u7504
p3509
aV\u8236
p3510
aV\u5201
p3511
aV\u9d02
p3512
aV\u9db1
p3513
aV\u5889
p3514
aV\u82a5
p3515
aV\u7f07
p3516
aV\u9798
p3517
aV\u76a4
p3518
aV\u8223
p3519
aV\u7ef0
p3520
aV\u9a73
p3521
aV\u73c9
p3522
aV\u9cb2
p3523
aV\u7c5d
p3524
aV\u7eaf
p3525
aV\u7840
p3526
aV\u87ea
p3527
aV\u6960
p3528
aV\u85c1
p3529
aV\u9896
p3530
aV\u8d23
p3531
aV\u5f08
p3532
aV\u9f2f
p3533
aV\u4f0e
p3534
aV\u8f8b
p3535
aV\u83d1
p3536
aV\u9e58
p3537
aV\u9d97
p3538
aV\u9177
p3539
aV\u8012
p3540
aV\u52b1
p3541
aV\u8052
p3542
aV\u66e9
p3543
aV\u8713
p3544
aV\u5a04
p3545
aV\u5fad
p3546
aV\u555c
p3547
aV\u70b3
p3548
aV\u8315
p3549
aV\u5375
p3550
aV\u680e
p3551
aV\u6491
p3552
aV\u6426
p3553
aV\u6978
p3554
aV\u6f62
p3555
aV\u5a40
p3556
aV\u8153
p3557
aV\u5389
p3558
aV\u9889
p3559
aV\u745c
p3560
aV\u8d62
p3561
aV\u7b6e
p3562
aV\u6cf7
p3563
aV\u9aeb
p3564
aV\u6c8c
p3565
aV\u900a
p3566
aV\u89cf
p3567
aV\u775b
p3568
aV\u98da
p3569
aV\u77a5
p3570
aV\u8403
p3571
aV\u7f54
p3572
aV\u60d5
p3573
aV\u9e6a
p3574
aV\u5fff
p3575
aV\u6180
p3576
aV\u7811
p3577
aV\u7ef8
p3578
aV\u6cde
p3579
aV\u851a
p3580
aV\u98e7
p3581
aV\u79fd
p3582
aV\u5ee8
p3583
aV\u9b10
p3584
aV\u6ec9
p3585
aV\u72e1
p3586
aV\u6c13
p3587
aV\u997c
p3588
aV\u8201
p3589
aV\u5ae6
p3590
aV\u9e69
p3591
aV\u7efe
p3592
aV\u8f58
p3593
aV\u6a1f
p3594
aV\u7da6
p3595
aV\u924f
p3596
aV\u5f3c
p3597
aV\u832f
p3598
aV\u890a
p3599
aV\u8258
p3600
aV\u8ddd
p3601
aV\u9708
p3602
aV\u5e91
p3603
aV\u8780
p3604
aV\u8517
p3605
aV\u7855
p3606
aV\u60da
p3607
aV\u8fc5
p3608
aV\u6a17
p3609
aV\u60b0
p3610
aV\u4ec4
p3611
aV\u660a
p3612
aV\u7f24
p3613
aV\u5b8c
p3614
aV\u8c04
p3615
aV\u77e9
p3616
aV\u5a36
p3617
aV\u70bd
p3618
aV\u5b93
p3619
aV\u80dd
p3620
aV\u8beb
p3621
aV\u7a76
p3622
aV\u5315
p3623
aV\u5ba5
p3624
aV\u97b2
p3625
aV\u763c
p3626
aV\u918d
p3627
aV\u8715
p3628
aV\u59f9
p3629
aV\u638a
p3630
aV\u56bc
p3631
aV\u6073
p3632
aV\u6c81
p3633
aV\u5be4
p3634
aV\u5c8c
p3635
aV\u8e72
p3636
aV\u8233
p3637
aV\u9095
p3638
aV\u5db7
p3639
aV\u9e36
p3640
aV\u8174
p3641
aV\u76a6
p3642
aV\u7ae6
p3643
aV\u89d1
p3644
aV\u6e54
p3645
aV\u804b
p3646
aV\u70c1
p3647
aV\u7f74
p3648
aV\u4f94
p3649
aV\u7317
p3650
aV\u7f5f
p3651
aV\u6eea
p3652
aV\u828b
p3653
aV\u6106
p3654
aV\u8220
p3655
aV\u8638
p3656
aV\u57d9
p3657
aV\u69fd
p3658
aV\u810d
p3659
aV\u97ae
p3660
aV\u7699
p3661
aV\u6320
p3662
aV\u7eda
p3663
aV\u8852
p3664
aV\u82e1
p3665
aV\u8360
p3666
aV\u7cf5
p3667
aV\u9082
p3668
aV\u9743
p3669
aV\u62cf
p3670
aV\u6d11
p3671
aV\u8365
p3672
aV\u8c26
p3673
aV\u82dc
p3674
aV\u6f7c
p3675
aV\u8f27
p3676
aV\u7bb4
p3677
aV\u80a2
p3678
aV\u9aa6
p3679
aV\u536f
p3680
aV\u998b
p3681
aV\u5edb
p3682
aV\u7f1b
p3683
aV\u7ff1
p3684
aV\u5b51
p3685
aV\u97ac
p3686
aV\u7597
p3687
aV\u6422
p3688
aV\u9b48
p3689
aV\u9005
p3690
aV\u8bf0
p3691
aV\u8046
p3692
aV\u6661
p3693
aV\u8dfc
p3694
aV\u9981
p3695
aV\u6ca3
p3696
aV\u5956
p3697
aV\u627c
p3698
aV\u76b4
p3699
aV\u62bc
p3700
aV\u8151
p3701
aV\u6c0e
p3702
aV\u4ea5
p3703
aV\u68c2
p3704
aV\u5cd9
p3705
aV\u67ff
p3706
aV\u5588
p3707
aV\u7635
p3708
aV\u62d2
p3709
aV\u9897
p3710
aV\u84ff
p3711
aV\u9a80
p3712
aV\u566c
p3713
aV\u5cc4
p3714
aV\u4eb9
p3715
aV\u870d
p3716
aV\u4e4e
p3717
aV\u7941
p3718
aV\u6a21
p3719
aV\u73b0
p3720
aV\u69cc
p3721
aV\u5475
p3722
aV\u6da1
p3723
aV\u8662
p3724
aV\u94db
p3725
aV\u8be5
p3726
aV\u8627
p3727
aV\u66fc
p3728
aV\u7b04
p3729
aV\u571c
p3730
aV\u9edc
p3731
aV\u7049
p3732
aV\u9179
p3733
aV\u82db
p3734
aV\u6d5a
p3735
aV\u8f36
p3736
aV\u9a95
p3737
aV\u67bb
p3738
aV\u8d4c
p3739
aV\u6492
p3740
aV\u4e98
p3741
aV\u6151
p3742
aV\u5631
p3743
aV\u579e
p3744
aV\u7bf8
p3745
aV\u7bd8
p3746
aV\u796f
p3747
aV\u68fa
p3748
aV\u60eb
p3749
aV\u783b
p3750
aV\u6930
p3751
aV\u6adc
p3752
aV\u8f7c
p3753
aV\u7f14
p3754
aV\u9724
p3755
aV\u8251
p3756
aV\u83c1
p3757
aV\u55e5
p3758
aV\u7525
p3759
aV\u5f29
p3760
aV\u69f2
p3761
aV\u8d34
p3762
aV\u56f9
p3763
aV\u649a
p3764
aV\u76ce
p3765
aV\u8385
p3766
aV\u8c1b
p3767
aV\u60d8
p3768
aV\u74e0
p3769
aV\u676d
p3770
aV\u968d
p3771
aV\u5520
p3772
aV\u8d32
p3773
aV\u7ec1
p3774
aV\u6cf1
p3775
aV\u5a55
p3776
aV\u8822
p3777
aV\u52fa
p3778
aV\u6b89
p3779
aV\u9efb
p3780
aV\u8935
p3781
aV\u90e4
p3782
aV\u71cb
p3783
aV\u9e51
p3784
aV\u7ee6
p3785
aV\u91a8
p3786
aV\u6800
p3787
aV\u553e
p3788
aV\u94d3
p3789
aV\u9ce3
p3790
aV\u5e31
p3791
aV\u78d4
p3792
aV\u962a
p3793
aV\u9165
p3794
aV\u7ee5
p3795
aV\u9190
p3796
aV\u9615
p3797
aV\u649e
p3798
aV\u4e32
p3799
aV\u9e91
p3800
aV\u7d7a
p3801
aV\u6c84
p3802
aV\u6e98
p3803
aV\u63c6
p3804
aV\u65df
p3805
aV\u6d3c
p3806
aV\u5594
p3807
aV\u8dc4
p3808
aV\u7ece
p3809
aV\u9753
p3810
aV\u58d5
p3811
aV\u7164
p3812
aV\u8e6c
p3813
aV\u6772
p3814
aV\u6f2d
p3815
aV\u5b65
p3816
aV\u8f97
p3817
aV\u5704
p3818
aV\u6398
p3819
aV\u71a8
p3820
aV\u52aa
p3821
aV\u96d2
p3822
aV\u50fe
p3823
aV\u88ef
p3824
aV\u639e
p3825
aV\u7329
p3826
aV\u59a4
p3827
aV\u7dcc
p3828
aV\u74d2
p3829
aV\u79e4
p3830
aV\u67f0
p3831
aV\u7f0a
p3832
aV\u873a
p3833
aV\u7edf
p3834
aV\u7080
p3835
aV\u9537
p3836
aV\u4faa
p3837
aV\u94d8
p3838
aV\u9b51
p3839
aV\u6538
p3840
aV\u87cf
p3841
aV\u7ee8
p3842
aV\u7f1f
p3843
aV\u6b27
p3844
aV\u51d1
p3845
aV\u9a9b
p3846
aV\u9142
p3847
aV\u533f
p3848
aV\u640f
p3849
aV\u6ec2
p3850
aV\u7396
p3851
aV\u8dcb
p3852
aV\u693d
p3853
aV\u8dea
p3854
aV\u86f8
p3855
aV\u858f
p3856
aV\u6a66
p3857
aV\u9a86
p3858
aV\u6b3b
p3859
aV\u7b5b
p3860
aV\u887d
p3861
aV\u5e1c
p3862
aV\u7bb5
p3863
aV\u63ba
p3864
aV\u70d8
p3865
aV\u4f88
p3866
aV\u8364
p3867
aV\u65d0
p3868
aV\u98d0
p3869
aV\u566d
p3870
aV\u632b
p3871
aV\u532e
p3872
aV\u634e
p3873
aV\u6854
p3874
aV\u7766
p3875
aV\u600f
p3876
aV\u54ac
p3877
aV\u8572
p3878
aV\u9538
p3879
aV\u77b3
p3880
aV\u7e06
p3881
aV\u7c9d
p3882
aV\u5ac9
p3883
aV\u9631
p3884
aV\u9a9e
p3885
aV\u5835
p3886
aV\u69d4
p3887
aV\u60fa
p3888
aV\u7800
p3889
aV\u7f5a
p3890
aV\u76df
p3891
aV\u7b2d
p3892
aV\u8c34
p3893
aV\u7fda
p3894
aV\u6da3
p3895
aV\u7f44
p3896
aV\u9e9a
p3897
aV\u85a8
p3898
aV\u7bac
p3899
aV\u5ac2
p3900
aV\u914e
p3901
aV\u5608
p3902
aV\u7f2f
p3903
aV\u8be1
p3904
aV\u53f1
p3905
aV\u75ca
p3906
aV\u6f4f
p3907
aV\u6e0e
p3908
aV\u81e7
p3909
aV\u4f6f
p3910
aV\u75b4
p3911
aV\u6a61
p3912
aV\u7baa
p3913
aV\u9546
p3914
aV\u8fcd
p3915
aV\u98cb
p3916
aV\u667c
p3917
aV\u71ac
p3918
aV\u9a02
p3919
aV\u6ce1
p3920
aV\u9570
p3921
aV\u877c
p3922
aV\u9e9b
p3923
aV\u8be4
p3924
aV\u84e6
p3925
aV\u9efc
p3926
aV\u7487
p3927
aV\u9706
p3928
aV\u82b9
p3929
aV\u7bd9
p3930
aV\u955b
p3931
aV\u7a98
p3932
aV\u949c
p3933
aV\u5233
p3934
aV\u5dc2
p3935
aV\u8bd8
p3936
aV\u6fa7
p3937
aV\u9e6b
p3938
aV\u76b1
p3939
aV\u755c
p3940
aV\u9c82
p3941
aV\u9181
p3942
aV\u74bf
p3943
aV\u529e
p3944
aV\u647d
p3945
aV\u75fc
p3946
aV\u74a8
p3947
aV\u524c
p3948
aV\u8e74
p3949
aV\u53a2
p3950
aV\u96a4
p3951
aV\u78d0
p3952
aV\u9624
p3953
aV\u8bf2
p3954
aV\u6016
p3955
aV\u6518
p3956
aV\u7950
p3957
aV\u82cc
p3958
aV\u4f1f
p3959
aV\u9122
p3960
aV\u7424
p3961
aV\u753a
p3962
aV\u7bd1
p3963
aV\u6f5e
p3964
aV\u9d4a
p3965
aV\u81ed
p3966
aV\u57f9
p3967
aV\u6603
p3968
aV\u556e
p3969
aV\u54a4
p3970
aV\u75f9
p3971
aV\u8718
p3972
aV\u6fb3
p3973
aV\u8832
p3974
aV\u54e5
p3975
aV\u79e7
p3976
aV\u666e
p3977
aV\u681d
p3978
aV\u5fa8
p3979
aV\u9b3b
p3980
aV\u5d3f
p3981
aV\u7763
p3982
aV\u9967
p3983
aV\u9722
p3984
aV\u85df
p3985
aV\u77cd
p3986
aV\u73ba
p3987
aV\u77e2
p3988
aV\u7efc
p3989
aV\u76cd
p3990
aV\u89f3
p3991
aV\u727a
p3992
aV\u645b
p3993
aV\u7f26
p3994
aV\u7b3e
p3995
aV\u6c5c
p3996
aV\u996a
p3997
aV\u9a88
p3998
aV\u88b4
p3999
aV\u6b49
p4000
aV\u5477
p4001
aV\u742e
p4002
aV\u4f30
p4003
aV\u69df
p4004
aV\u9e11
p4005
aV\u8398
p4006
aV\u5a29
p4007
aV\u82ae
p4008
aV\u8343
p4009
aV\u5be8
p4010
aV\u829f
p4011
aV\u6a97
p4012
aV\u6332
p4013
aV\u7e3b
p4014
aV\u6d19
p4015
aV\u77aa
p4016
aV\u60f0
p4017
aV\u94e9
p4018
aV\u8b6c
p4019
aV\u6042
p4020
aV\u563f
p4021
aV\u5821
p4022
aV\u5455
p4023
aV\u6dd8
p4024
aV\u5fe4
p4025
aV\u5c79
p4026
aV\u886c
p4027
aV\u6cef
p4028
aV\u6fee
p4029
aV\u91b2
p4030
aV\u5d24
p4031
aV\u819c
p4032
aV\u96a7
p4033
aV\u732a
p4034
aV\u8234
p4035
aV\u94bb
p4036
aV\u8740
p4037
aV\u9169
p4038
aV\u620a
p4039
aV\u724c
p4040
aV\u63e9
p4041
aV\u4e42
p4042
aV\u784e
p4043
aV\u809a
p4044
aV\u8f08
p4045
aV\u6dc0
p4046
aV\u62ca
p4047
aV\u4f57
p4048
aV\u8e6d
p4049
aV\u65f0
p4050
aV\u5f77
p4051
aV\u88aa
p4052
aV\u7d8d
p4053
aV\u7c0c
p4054
aV\u63c9
p4055
aV\u835e
p4056
aV\u76fb
p4057
aV\u7ea0
p4058
aV\u7972
p4059
aV\u507f
p4060
aV\u6b83
p4061
aV\u553c
p4062
aV\u9a4e
p4063
aV\u7825
p4064
aV\u8845
p4065
aV\u6c6d
p4066
aV\u8671
p4067
aV\u4f2a
p4068
aV\u8725
p4069
aV\u736d
p4070
aV\u97af
p4071
aV\u5a32
p4072
aV\u863a
p4073
aV\u7230
p4074
aV\u9b47
p4075
aV\u814b
p4076
aV\u8563
p4077
aV\u65f8
p4078
aV\u91ad
p4079
aV\u6e89
p4080
aV\u7c34
p4081
aV\u9e48
p4082
aV\u6450
p4083
aV\u9972
p4084
aV\u5484
p4085
aV\u6c94
p4086
aV\u8e1e
p4087
aV\u5545
p4088
aV\u824b
p4089
aV\u7b4f
p4090
aV\u83f6
p4091
aV\u4ffe
p4092
aV\u73ab
p4093
aV\u6dbf
p4094
aV\u6062
p4095
aV\u8927
p4096
aV\u7cca
p4097
aV\u654f
p4098
aV\u786e
p4099
aV\u62f6
p4100
aV\u9702
p4101
aV\u9e87
p4102
aV\u6c6a
p4103
aV\u7f32
p4104
aV\u966c
p4105
aV\u5fe1
p4106
aV\u9e47
p4107
aV\u71ee
p4108
aV\u6ebd
p4109
aV\u8c11
p4110
aV\u83c9
p4111
aV\u608c
p4112
aV\u8461
p4113
aV\u75cd
p4114
aV\u52c3
p4115
aV\u94d7
p4116
aV\u83f9
p4117
aV\u5582
p4118
aV\u8339
p4119
aV\u52d8
p4120
aV\u57ab
p4121
aV\u5740
p4122
aV\u7d5c
p4123
aV\u82f9
p4124
aV\u5398
p4125
aV\u6d27
p4126
aV\u5ea0
p4127
aV\u7a70
p4128
aV\u54fa
p4129
aV\u8fe8
p4130
aV\u7856
p4131
aV\u7eef
p4132
aV\u9f9a
p4133
aV\u51c6
p4134
aV\u6d4d
p4135
aV\u6755
p4136
aV\u62fd
p4137
aV\u9e6f
p4138
aV\u7816
p4139
aV\u6920
p4140
aV\u94c9
p4141
aV\u81fb
p4142
aV\u88b7
p4143
aV\u600a
p4144
aV\u97ed
p4145
aV\u9dc3
p4146
aV\u7f0b
p4147
aV\u7633
p4148
aV\u9ac0
p4149
aV\u7ed8
p4150
aV\u6067
p4151
aV\u80fc
p4152
aV\u7206
p4153
aV\u515c
p4154
aV\u8629
p4155
aV\u8937
p4156
aV\u8be0
p4157
aV\u607d
p4158
aV\u6d85
p4159
aV\u62d7
p4160
aV\u8028
p4161
aV\u7430
p4162
aV\u9608
p4163
aV\u5b5a
p4164
aV\u57a0
p4165
aV\u8bec
p4166
aV\u8511
p4167
aV\u64d0
p4168
aV\u6053
p4169
aV\u9efe
p4170
aV\u8314
p4171
aV\u7f5d
p4172
aV\u8e50
p4173
aV\u60e9
p4174
aV\u5f6c
p4175
aV\u703c
p4176
aV\u6590
p4177
aV\u62d3
p4178
aV\u700d
p4179
aV\u9ac6
p4180
aV\u5f57
p4181
aV\u6963
p4182
aV\u8c0c
p4183
aV\u7eab
p4184
aV\u91b5
p4185
aV\u8d37
p4186
aV\u53c9
p4187
aV\u914a
p4188
aV\u67d1
p4189
aV\u8650
p4190
aV\u7eeb
p4191
aV\u9a03
p4192
aV\u955d
p4193
aV\u6055
p4194
aV\u6c8d
p4195
aV\u623e
p4196
aV\u8f8e
p4197
aV\u50f5
p4198
aV\u5e01
p4199
aV\u7480
p4200
aV\u9dac
p4201
aV\u7ca4
p4202
aV\u77f0
p4203
aV\u8a79
p4204
aV\u5dc7
p4205
aV\u9991
p4206
aV\u86af
p4207
aV\u8946
p4208
aV\u7fd5
p4209
aV\u72f7
p4210
aV\u6705
p4211
aV\u7c40
p4212
aV\u960f
p4213
aV\u90a0
p4214
aV\u832d
p4215
aV\u6a3e
p4216
aV\u62ec
p4217
aV\u5b7d
p4218
aV\u728d
p4219
aV\u72de
p4220
aV\u707f
p4221
aV\u8d48
p4222
aV\u52cd
p4223
aV\u5a3c
p4224
aV\u7b7c
p4225
aV\u548e
p4226
aV\u8096
p4227
aV\u7f27
p4228
aV\u6585
p4229
aV\u6206
p4230
aV\u6b46
p4231
aV\u82eb
p4232
aV\u876e
p4233
aV\u6484
p4234
aV\u9c94
p4235
aV\u6a1b
p4236
aV\u87ae
p4237
aV\u6cb4
p4238
aV\u59d2
p4239
aV\u8759
p4240
aV\u9c95
p4241
aV\u60ad
p4242
aV\u6f48
p4243
aV\u75cf
p4244
aV\u564e
p4245
aV\u7564
p4246
aV\u8f9a
p4247
aV\u73a0
p4248
aV\u90a2
p4249
aV\u83c0
p4250
aV\u6e4e
p4251
aV\u6bf0
p4252
aV\u8283
p4253
aV\u60dd
p4254
aV\u9a54
p4255
aV\u6e5c
p4256
aV\u666c
p4257
aV\u62ef
p4258
aV\u6c70
p4259
aV\u8782
p4260
aV\u6e6e
p4261
aV\u7023
p4262
aV\u7325
p4263
aV\u7f7d
p4264
aV\u7c26
p4265
aV\u7ebd
p4266
aV\u8344
p4267
aV\u9e52
p4268
aV\u8e0a
p4269
aV\u6c86
p4270
aV\u852b
p4271
aV\u5aaa
p4272
aV\u5ed2
p4273
aV\u6059
p4274
aV\u59e8
p4275
aV\u6df0
p4276
aV\u9a93
p4277
aV\u8c1c
p4278
aV\u6834
p4279
aV\u5238
p4280
aV\u95cd
p4281
aV\u5278
p4282
aV\u750d
p4283
aV\u6dc4
p4284
aV\u7cbc
p4285
aV\u6c47
p4286
aV\u69ca
p4287
aV\u98d4
p4288
aV\u7bfe
p4289
aV\u548d
p4290
aV\u7895
p4291
aV\u6eb1
p4292
aV\u6bb3
p4293
aV\u7cbd
p4294
aV\u6b48
p4295
aV\u826e
p4296
aV\u642d
p4297
aV\u5773
p4298
aV\u812f
p4299
aV\u8c18
p4300
aV\u5ca3
p4301
aV\u7428
p4302
aV\u972a
p4303
aV\u6448
p4304
aV\u6956
p4305
aV\u80db
p4306
aV\u9166
p4307
aV\u5249
p4308
aV\u56ff
p4309
aV\u58a0
p4310
aV\u903b
p4311
aV\u9b4d
p4312
aV\u9f51
p4313
aV\u7ee4
p4314
aV\u5457
p4315
aV\u5593
p4316
aV\u5212
p4317
aV\u8c2e
p4318
aV\u8734
p4319
aV\u7cb9
p4320
aV\u5fcf
p4321
aV\u89eb
p4322
aV\u6841
p4323
aV\u6eda
p4324
aV\u64de
p4325
aV\u6bec
p4326
aV\u6e83
p4327
aV\u7ea3
p4328
aV\u6d33
p4329
aV\u8230
p4330
aV\u9954
p4331
aV\u91bd
p4332
aV\u9ccf
p4333
aV\u8fd9
p4334
aV\u90e7
p4335
aV\u87af
p4336
aV\u9914
p4337
aV\u8709
p4338
aV\u6b96
p4339
aV\u73a6
p4340
aV\u7729
p4341
aV\u9f39
p4342
aV\u724d
p4343
aV\u67de
p4344
aV\u5ae0
p4345
aV\u9e55
p4346
aV\u87ab
p4347
aV\u5d6b
p4348
aV\u8c32
p4349
aV\u9e4e
p4350
aV\u8c5a
p4351
aV\u8490
p4352
aV\u6609
p4353
aV\u4e19
p4354
aV\u851f
p4355
aV\u914b
p4356
aV\u6479
p4357
aV\u4fd8
p4358
aV\u6cda
p4359
aV\u56f7
p4360
aV\u8e2c
p4361
aV\u6109
p4362
aV\u64b0
p4363
aV\u6033
p4364
aV\u6de4
p4365
aV\u8d40
p4366
aV\u83df
p4367
aV\u77e7
p4368
aV\u9f37
p4369
aV\u7726
p4370
aV\u6844
p4371
aV\u6bd9
p4372
aV\u5ae3
p4373
aV\u61f5
p4374
aV\u9a23
p4375
aV\u82c8
p4376
aV\u69da
p4377
aV\u721a
p4378
aV\u4f09
p4379
aV\u83b3
p4380
aV\u8348
p4381
aV\u740f
p4382
aV\u77fb
p4383
aV\u6017
p4384
aV\u7ca2
p4385
aV\u81b4
p4386
aV\u6cc2
p4387
aV\u7ecd
p4388
aV\u9525
p4389
aV\u68da
p4390
aV\u577b
p4391
aV\u9785
p4392
aV\u989b
p4393
aV\u8c28
p4394
aV\u70ab
p4395
aV\u552e
p4396
aV\u7b64
p4397
aV\u6911
p4398
aV\u8e94
p4399
aV\u979a
p4400
aV\u7c33
p4401
aV\u86e4
p4402
aV\u7e82
p4403
aV\u6ca9
p4404
aV\u7ef7
p4405
aV\u5d12
p4406
aV\u7b5c
p4407
aV\u8160
p4408
aV\u6866
p4409
aV\u867a
p4410
aV\u4e15
p4411
aV\u62e2
p4412
aV\u6d2b
p4413
aV\u648f
p4414
aV\u6b91
p4415
aV\u9097
p4416
aV\u65a5
p4417
aV\u5eb3
p4418
aV\u751c
p4419
aV\u9ef3
p4420
aV\u9505
p4421
aV\u620b
p4422
aV\u5c5f
p4423
aV\u9524
p4424
aV\u8be6
p4425
aV\u5a06
p4426
aV\u5216
p4427
aV\u5c4a
p4428
aV\u9ddf
p4429
aV\u54e6
p4430
aV\u5af1
p4431
aV\u6fec
p4432
aV\u8892
p4433
aV\u6221
p4434
aV\u60a2
p4435
aV\u831d
p4436
aV\u67b8
p4437
aV\u634b
p4438
aV\u8c55
p4439
aV\u52d6
p4440
aV\u8763
p4441
aV\u7f73
p4442
aV\u5581
p4443
aV\u9f81
p4444
aV\u5440
p4445
aV\u7360
p4446
aV\u69be
p4447
aV\u7a5f
p4448
aV\u7481
p4449
aV\u7f1c
p4450
aV\u56ad
p4451
aV\u8476
p4452
aV\u8e09
p4453
aV\u67b7
p4454
aV\u77d7
p4455
aV\u6ed5
p4456
aV\u96ed
p4457
aV\u94e6
p4458
aV\u6e1f
p4459
aV\u522c
p4460
aV\u83a0
p4461
aV\u88a8
p4462
aV\u60f8
p4463
aV\u8869
p4464
aV\u868b
p4465
aV\u6995
p4466
aV\u752f
p4467
aV\u7399
p4468
aV\u7e9b
p4469
aV\u75fa
p4470
aV\u6d52
p4471
aV\u6593
p4472
aV\u8c27
p4473
aV\u6670
p4474
aV\u9b49
p4475
aV\u7457
p4476
aV\u9a78
p4477
aV\u5e5b
p4478
aV\u5d5d
p4479
aV\u7cdc
p4480
aV\u55fd
p4481
aV\u8f53
p4482
aV\u9700
p4483
aV\u522e
p4484
aV\u62b9
p4485
aV\u818a
p4486
aV\u90c5
p4487
aV\u84cd
p4488
aV\u624e
p4489
aV\u8760
p4490
aV\u63e3
p4491
aV\u97eb
p4492
aV\u956c
p4493
aV\u6760
p4494
aV\u89ff
p4495
aV\u5482
p4496
aV\u6db4
p4497
aV\u7696
p4498
aV\u7f5b
p4499
aV\u97a6
p4500
aV\u72ee
p4501
aV\u6279
p4502
aV\u888b
p4503
aV\u5d99
p4504
aV\u521c
p4505
aV\u6fa5
p4506
aV\u9cc3
p4507
aV\u6654
p4508
aV\u90db
p4509
aV\u6c10
p4510
aV\u9070
p4511
aV\u54f3
p4512
aV\u8df9
p4513
aV\u9509
p4514
aV\u6715
p4515
aV\u7a17
p4516
aV\u6ba2
p4517
aV\u4f25
p4518
aV\u6349
p4519
aV\u9171
p4520
aV\u75d2
p4521
aV\u867f
p4522
aV\u4f8f
p4523
aV\u6ea5
p4524
aV\u5aad
p4525
aV\u7faf
p4526
aV\u9588
p4527
aV\u7272
p4528
aV\u837c
p4529
aV\u9a82
p4530
aV\u949e
p4531
aV\u96d8
p4532
aV\u55c8
p4533
aV\u596b
p4534
aV\u6556
p4535
aV\u8391
p4536
aV\u8210
p4537
aV\u8693
p4538
aV\u501c
p4539
aV\u6f46
p4540
aV\u7a40
p4541
aV\u8d66
p4542
aV\u786c
p4543
aV\u6bf5
p4544
aV\u8dba
p4545
aV\u60bc
p4546
aV\u7d45
p4547
aV\u996b
p4548
aV\u58ec
p4549
aV\u9a81
p4550
aV\u778b
p4551
aV\u8793
p4552
aV\u8d63
p4553
aV\u8dcf
p4554
aV\u7f58
p4555
aV\u565e
p4556
aV\u996c
p4557
aV\u74a0
p4558
aV\u91dc
p4559
aV\u4f63
p4560
aV\u9773
p4561
aV\u637b
p4562
aV\u9883
p4563
aV\u6a00
p4564
aV\u890e
p4565
aV\u6eb7
p4566
aV\u7f42
p4567
aV\u60b8
p4568
aV\u7e47
p4569
aV\u801c
p4570
aV\u6939
p4571
aV\u89ce
p4572
aV\u5c8a
p4573
aV\u7b03
p4574
aV\u7ead
p4575
aV\u807f
p4576
aV\u9f0b
p4577
aV\u83bf
p4578
aV\u7cc1
p4579
aV\u79c3
p4580
aV\u9958
p4581
aV\u51bd
p4582
aV\u54bf
p4583
aV\u721d
p4584
aV\u8b0f
p4585
aV\u96ca
p4586
aV\u4ea2
p4587
aV\u755b
p4588
aV\u6f4e
p4589
aV\u5664
p4590
aV\u6ee2
p4591
aV\u75f0
p4592
aV\u769b
p4593
aV\u559d
p4594
aV\u8e20
p4595
aV\u80bf
p4596
aV\u83e9
p4597
aV\u7572
p4598
aV\u5f17
p4599
aV\u88d5
p4600
aV\u88a4
p4601
aV\u6fb6
p4602
aV\u5556
p4603
aV\u61ca
p4604
aV\u72c8
p4605
aV\u8253
p4606
aV\u9c8a
p4607
aV\u667b
p4608
aV\u5b83
p4609
aV\u916a
p4610
aV\u9885
p4611
aV\u6328
p4612
aV\u6b38
p4613
aV\u5944
p4614
aV\u4fcb
p4615
aV\u704a
p4616
aV\u9e56
p4617
aV\u76f1
p4618
aV\u8dec
p4619
aV\u7f2b
p4620
aV\u94b2
p4621
aV\u5e5e
p4622
aV\u85cb
p4623
aV\u6bf8
p4624
aV\u4eb8
p4625
aV\u6a87
p4626
aV\u5f95
p4627
aV\u7c28
p4628
aV\u60ab
p4629
aV\u72b7
p4630
aV\u75b9
p4631
aV\u530d
p4632
aV\u558e
p4633
aV\u7fb5
p4634
aV\u5ca8
p4635
aV\u8c33
p4636
aV\u9abc
p4637
aV\u8d49
p4638
aV\u8c73
p4639
aV\u8f75
p4640
aV\u6081
p4641
aV\u6b87
p4642
aV\u918b
p4643
aV\u5d93
p4644
aV\u8c1e
p4645
aV\u7fbf
p4646
aV\u80c1
p4647
aV\u57cf
p4648
aV\u6b5c
p4649
aV\u6c5e
p4650
aV\u6bbd
p4651
aV\u8b07
p4652
aV\u5e15
p4653
aV\u8fee
p4654
aV\u829a
p4655
aV\u57a4
p4656
aV\u6041
p4657
aV\u88c6
p4658
aV\u86da
p4659
aV\u5c69
p4660
aV\u9a7d
p4661
aV\u6d0a
p4662
aV\u4f83
p4663
aV\u7b91
p4664
aV\u5220
p4665
aV\u84af
p4666
aV\u5cbf
p4667
aV\u8356
p4668
aV\u67d9
p4669
aV\u5e68
p4670
aV\u7d6a
p4671
aV\u4ef3
p4672
aV\u5cff
p4673
aV\u6280
p4674
aV\u5f6a
p4675
aV\u6b86
p4676
aV\u5daa
p4677
aV\u4e33
p4678
aV\u7fbe
p4679
aV\u6a5b
p4680
aV\u7be6
p4681
aV\u6b9b
p4682
aV\u841a
p4683
aV\u4fdc
p4684
aV\u91b7
p4685
aV\u89c7
p4686
aV\u9ad1
p4687
aV\u7cd5
p4688
aV\u7f68
p4689
aV\u8ff3
p4690
aV\u6380
p4691
aV\u8c8a
p4692
aV\u550f
p4693
aV\u7b90
p4694
aV\u9c15
p4695
aV\u8619
p4696
aV\u9e29
p4697
aV\u95e4
p4698
aV\u6d1f
p4699
aV\u6989
p4700
aV\u7f12
p4701
aV\u4fde
p4702
aV\u7237
p4703
aV\u8b4a
p4704
aV\u64eb
p4705
aV\u51f9
p4706
aV\u7078
p4707
aV\u918e
p4708
aV\u8596
p4709
aV\u6d49
p4710
aV\u9139
p4711
aV\u7a3f
p4712
aV\u4f5d
p4713
aV\u846b
p4714
aV\u8304
p4715
aV\u558b
p4716
aV\u54a1
p4717
aV\u7622
p4718
aV\u77b7
p4719
aV\u73cf
p4720
aV\u8ddb
p4721
aV\u5db0
p4722
aV\u6988
p4723
aV\u578c
p4724
aV\u9123
p4725
aV\u80ae
p4726
aV\u8245
p4727
aV\u8757
p4728
aV\u62da
p4729
aV\u95e0
p4730
aV\u5aea
p4731
aV\u7b7f
p4732
aV\u54d7
p4733
aV\u67c1
p4734
aV\u6640
p4735
aV\u74f7
p4736
aV\u960b
p4737
aV\u97b6
p4738
aV\u7278
p4739
aV\u7efb
p4740
aV\u55e2
p4741
aV\u5c7c
p4742
aV\u549b
p4743
aV\u520e
p4744
aV\u8084
p4745
aV\u61af
p4746
aV\u6f34
p4747
aV\u86c1
p4748
aV\u8cdd
p4749
aV\u609a
p4750
aV\u4e31
p4751
aV\u6641
p4752
aV\u9661
p4753
aV\u78d1
p4754
aV\u9a69
p4755
aV\u76fe
p4756
aV\u74ff
p4757
aV\u78cb
p4758
aV\u4f5a
p4759
aV\u5860
p4760
aV\u68eb
p4761
aV\u6b82
p4762
aV\u6509
p4763
aV\u7aad
p4764
aV\u5413
p4765
aV\u631d
p4766
aV\u847c
p4767
aV\u52bc
p4768
aV\u763f
p4769
aV\u5151
p4770
aV\u90d0
p4771
aV\u4fda
p4772
aV\u9afd
p4773
aV\u9955
p4774
aV\u507b
p4775
aV\u5ffa
p4776
aV\u7a8d
p4777
aV\u879f
p4778
aV\u78a1
p4779
aV\u8548
p4780
aV\u99b9
p4781
aV\u87df
p4782
aV\u6f60
p4783
aV\u80f1
p4784
aV\u5d78
p4785
aV\u5e7a
p4786
aV\u766b
p4787
aV\u7292
p4788
aV\u839c
p4789
aV\u7327
p4790
aV\u73bc
p4791
aV\u7d63
p4792
aV\u527d
p4793
aV\u4ed4
p4794
aV\u849f
p4795
aV\u8d5a
p4796
aV\u8386
p4797
aV\u6f19
p4798
aV\u821b
p4799
aV\u4fae
p4800
aV\u723b
p4801
aV\u825b
p4802
aV\u8dda
p4803
aV\u7769
p4804
aV\u7dfa
p4805
aV\u8c85
p4806
aV\u5310
p4807
aV\u9aa1
p4808
aV\u7f30
p4809
aV\u96a9
p4810
aV\u5d1a
p4811
aV\u87b3
p4812
aV\u6748
p4813
aV\u644a
p4814
aV\u7350
p4815
aV\uffe3
p4816
aV\u96e9
p4817
aV\u8c69
p4818
aV\u5c7a
p4819
aV\u6286
p4820
aV\u7d96
p4821
aV\u5fed
p4822
aV\u631b
p4823
aV\u97cd
p4824
aV\uff23
p4825
aV\u98a2
p4826
aV\u9dc7
p4827
aV\u74aa
p4828
aV\u6435
p4829
aV\u9e39
p4830
aV\u67c8
p4831
aV\u84ca
p4832
aV\u855f
p4833
aV\u7bd3
p4834
aV\u6eee
p4835
aV\u5e79
p4836
aV\u8c00
p4837
aV\u8585
p4838
aV\u652b
p4839
aV\u5f22
p4840
aV\u8d5c
p4841
aV\u9760
p4842
aV\u90d3
p4843
aV\u5254
p4844
aV\u8fed
p4845
aV\u696e
p4846
aV\u5878
p4847
aV\u57fd
p4848
aV\u7c0b
p4849
aV\u756c
p4850
aV\u6e17
p4851
aV\u67b2
p4852
aV\u98a7
p4853
aV\u547b
p4854
aV\u527f
p4855
aV\u6787
p4856
aV\u9d8b
p4857
aV\u7f0c
p4858
aV\u7f2c
p4859
aV\u776b
p4860
aV\u825f
p4861
aV\u96bd
p4862
aV\u605e
p4863
aV\u5466
p4864
aV\u78f9
p4865
aV\u6b84
p4866
aV\u8819
p4867
aV\u8235
p4868
aV\u9de0
p4869
aV\u57fc
p4870
aV\u4f81
p4871
aV\u6487
p4872
aV\u8389
p4873
aV\u831e
p4874
aV\u7aa3
p4875
aV\u55bd
p4876
aV\u733e
p4877
aV\u8d42
p4878
aV\u6746
p4879
aV\u9162
p4880
aV\u73e9
p4881
aV\u719b
p4882
aV\u6eeb
p4883
aV\u7b66
p4884
aV\u7a78
p4885
aV\u90ff
p4886
aV\u4f01
p4887
aV\u6905
p4888
aV\u8309
p4889
aV\u8c16
p4890
aV\u849c
p4891
aV\u9da2
p4892
aV\u98a4
p4893
aV\u57a6
p4894
aV\u8d2d
p4895
aV\u596d
p4896
aV\u81ca
p4897
aV\u95d2
p4898
aV\u9155
p4899
aV\u8c57
p4900
aV\u665b
p4901
aV\u9f7e
p4902
aV\u5393
p4903
aV\u8182
p4904
aV\u8d97
p4905
aV\u8fab
p4906
aV\u6ec1
p4907
aV\u8bc3
p4908
aV\u9ccd
p4909
aV\u7be3
p4910
aV\u506a
p4911
aV\u576b
p4912
aV\u7c94
p4913
aV\u8f80
p4914
aV\u6b03
p4915
aV\u7313
p4916
aV\u6631
p4917
aV\u5d37
p4918
aV\u75bc
p4919
aV\u987c
p4920
aV\u86c6
p4921
aV\u7fe3
p4922
aV\u696f
p4923
aV\u7d77
p4924
aV\u9ea8
p4925
aV\u7181
p4926
aV\u808b
p4927
aV\u620c
p4928
aV\u771a
p4929
aV\u6020
p4930
aV\u722c
p4931
aV\u9b32
p4932
aV\u7946
p4933
aV\u8fd5
p4934
aV\u5156
p4935
aV\u775a
p4936
aV\u7bdd
p4937
aV\u90eb
p4938
aV\u4f6a
p4939
aV\u956e
p4940
aV\u9e74
p4941
aV\u7168
p4942
aV\u800b
p4943
aV\u6b92
p4944
aV\u6f15
p4945
aV\u7498
p4946
aV\u86a4
p4947
aV\u8d29
p4948
aV\u962f
p4949
aV\u5141
p4950
aV\u634d
p4951
aV\u62cc
p4952
aV\u58f9
p4953
aV\u8a67
p4954
aV\u8d69
p4955
aV\u766f
p4956
aV\u7bf2
p4957
aV\u9e0a
p4958
aV\u9016
p4959
aV\u5499
p4960
aV\u73a2
p4961
aV\u6bef
p4962
aV\u542e
p4963
aV\u5634
p4964
aV\u7c38
p4965
aV\u8be7
p4966
aV\u62a2
p4967
aV\u772f
p4968
aV\u94ae
p4969
aV\u7459
p4970
aV\u765e
p4971
aV\u8479
p4972
aV\u5739
p4973
aV\u7887
p4974
aV\u8300
p4975
aV\u9f89
p4976
aV\u7d0a
p4977
aV\u6e93
p4978
aV\u8c14
p4979
aV\u7f1e
p4980
aV\u572e
p4981
aV\u67b9
p4982
aV\u5fc9
p4983
aV\u5d4a
p4984
aV\u7a92
p4985
aV\u874e
p4986
aV\u8dd5
p4987
aV\u5adb
p4988
aV\u7624
p4989
aV\u7a91
p4990
aV\u7b10
p4991
aV\u506c
p4992
aV\u7df5
p4993
aV\u6376
p4994
aV\u7c95
p4995
aV\u857a
p4996
aV\u4f7e
p4997
aV\u9719
p4998
aV\u5698
p4999
aV\u6f29
p5000
a.